librocksdb.so.5.4:_Z13MurmurHash64APKvij
librocksdb.so.5.4:_ZN7rocksdb10BuildTableERKNSt7__cxx1112basic_stringIcSt11char_traitsIcESaIcEEEPNS_3EnvERKNS_18ImmutableCFOptionsERKNS_16MutableCFOptionsERKNS_10EnvOptionsEPNS_10TableCacheEPNS_16InternalIteratorESt10unique_ptrISL_St14default_deleteISL_EEPNS_12FileMetaDataERKNS_21InternalKeyComparatorEPKSt6vectorISN_INS_26IntTblPropCollectorFactoryESO_ISX_EESaISZ_EEjS7_SW_ImSaImEEmNS_15CompressionTypeERKNS_18CompressionOptionsEbPNS_13InternalStatsENS_23TableFileCreationReasonEPNS_11EventLoggerEiNS8_10IOPriorityEPNS_15TablePropertiesEi
librocksdb.so.5.4:_ZN7rocksdb10Checkpoint16CreateCheckpointERKNSt7__cxx1112basic_stringIcSt11char_traitsIcESaIcEEEm
librocksdb.so.5.4:_ZN7rocksdb10Checkpoint6CreateEPNS_2DBEPPS0_
librocksdb.so.5.4:_ZN7rocksdb10Compaction15GetBoundaryKeysEPNS_18VersionStorageInfoERKSt6vectorINS_20CompactionInputFilesESaIS4_EEPNS_5SliceESA_
librocksdb.so.5.4:_ZN7rocksdb10Compaction15SetInputVersionEPNS_7VersionE
librocksdb.so.5.4:_ZN7rocksdb10Compaction16IsFullCompactionEPNS_18VersionStorageInfoERKSt6vectorINS_20CompactionInputFilesESaIS4_EE
librocksdb.so.5.4:_ZN7rocksdb10Compaction17AddInputDeletionsEPNS_11VersionEditE
librocksdb.so.5.4:_ZN7rocksdb10Compaction17IsBottommostLevelEiPNS_18VersionStorageInfoERKSt6vectorINS_20CompactionInputFilesESaIS4_EE
librocksdb.so.5.4:_ZN7rocksdb10Compaction22ReleaseCompactionFilesENS_6StatusE
librocksdb.so.5.4:_ZN7rocksdb10Compaction22TEST_IsBottommostLevelEiPNS_18VersionStorageInfoERKSt6vectorINS_20CompactionInputFilesESaIS4_EE
librocksdb.so.5.4:_ZN7rocksdb10Compaction23MarkFilesBeingCompactedEb
librocksdb.so.5.4:_ZN7rocksdb10Compaction24ResetNextCompactionIndexEv
librocksdb.so.5.4:_ZN7rocksdb10Compaction7SummaryEPci
librocksdb.so.5.4:_ZN7rocksdb10CompactionC1EPNS_18VersionStorageInfoERKNS_18ImmutableCFOptionsERKNS_16MutableCFOptionsESt6vectorINS_20CompactionInputFilesESaISA_EEimmjNS_15CompressionTypeES9_IPNS_12FileMetaDataESaISF_EEbdbNS_16CompactionReasonE
librocksdb.so.5.4:_ZN7rocksdb10CompactionC2EPNS_18VersionStorageInfoERKNS_18ImmutableCFOptionsERKNS_16MutableCFOptionsESt6vectorINS_20CompactionInputFilesESaISA_EEimmjNS_15CompressionTypeES9_IPNS_12FileMetaDataESaISF_EEbdbNS_16CompactionReasonE
librocksdb.so.5.4:_ZN7rocksdb10CompactionD1Ev
librocksdb.so.5.4:_ZN7rocksdb10CompactionD2Ev
librocksdb.so.5.4:_ZN7rocksdb10ComparatorD0Ev
librocksdb.so.5.4:_ZN7rocksdb10ComparatorD1Ev
librocksdb.so.5.4:_ZN7rocksdb10ComparatorD2Ev
librocksdb.so.5.4:_ZN7rocksdb10CreateFileEPNS_3EnvERKNSt7__cxx1112basic_stringIcSt11char_traitsIcESaIcEEES9_
librocksdb.so.5.4:_ZN7rocksdb10DbDumpTool3RunERKNS_11DumpOptionsENS_7OptionsE
librocksdb.so.5.4:_ZN7rocksdb10DocumentDB4OpenERKNS_17DocumentDBOptionsERKNSt7__cxx1112basic_stringIcSt11char_traitsIcESaIcEEERKSt6vectorINS0_15IndexDescriptorESaISD_EEPPS0_b
librocksdb.so.5.4:_ZN7rocksdb10EnvOptionsC1ERKNS_9DBOptionsE
librocksdb.so.5.4:_ZN7rocksdb10EnvOptionsC1Ev
librocksdb.so.5.4:_ZN7rocksdb10EnvOptionsC2ERKNS_9DBOptionsE
librocksdb.so.5.4:_ZN7rocksdb10EnvOptionsC2Ev
librocksdb.so.5.4:_ZN7rocksdb10EnvWrapperD0Ev
librocksdb.so.5.4:_ZN7rocksdb10EnvWrapperD1Ev
librocksdb.so.5.4:_ZN7rocksdb10EnvWrapperD2Ev
librocksdb.so.5.4:_ZN7rocksdb10EscapeCharEc
librocksdb.so.5.4:_ZN7rocksdb10GetCommand4HelpERNSt7__cxx1112basic_stringIcSt11char_traitsIcESaIcEEE
librocksdb.so.5.4:_ZN7rocksdb10GetCommand9DoCommandEv
librocksdb.so.5.4:_ZN7rocksdb10GetCommandC1ERKSt6vectorINSt7__cxx1112basic_stringIcSt11char_traitsIcESaIcEEESaIS7_EERKSt3mapIS7_S7_St4lessIS7_ESaISt4pairIKS7_S7_EEESB_
librocksdb.so.5.4:_ZN7rocksdb10GetCommandC2ERKSt6vectorINSt7__cxx1112basic_stringIcSt11char_traitsIcESaIcEEESaIS7_EERKSt3mapIS7_S7_St4lessIS7_ESaISt4pairIKS7_S7_EEESB_
librocksdb.so.5.4:_ZN7rocksdb10GetContext15MarkKeyMayExistEv
librocksdb.so.5.4:_ZN7rocksdb10GetContext9SaveValueERKNS_17ParsedInternalKeyERKNS_5SliceEPNS_9CleanableE
librocksdb.so.5.4:_ZN7rocksdb10GetContext9SaveValueERKNS_5SliceEm
librocksdb.so.5.4:_ZN7rocksdb10GetContextC1EPKNS_10ComparatorEPKNS_13MergeOperatorEPNS_6LoggerEPNS_10StatisticsENS0_8GetStateERKNS_5SliceEPNS_13PinnableSliceEPbPNS_12MergeContextEPNS_18RangeDelAggregatorEPNS_3EnvEPmPNS_22PinnedIteratorsManagerE
librocksdb.so.5.4:_ZN7rocksdb10GetContextC2EPKNS_10ComparatorEPKNS_13MergeOperatorEPNS_6LoggerEPNS_10StatisticsENS0_8GetStateERKNS_5SliceEPNS_13PinnableSliceEPbPNS_12MergeContextEPNS_18RangeDelAggregatorEPNS_3EnvEPmPNS_22PinnedIteratorsManagerE
librocksdb.so.5.4:_ZN7rocksdb10LDBCommand10IsValueHexERKSt3mapINSt7__cxx1112basic_stringIcSt11char_traitsIcESaIcEEES7_St4lessIS7_ESaISt4pairIKS7_S7_EEERKSt6vectorIS7_SaIS7_EE
librocksdb.so.5.4:_ZN7rocksdb10LDBCommand11GetCfHandleEv
librocksdb.so.5.4:_ZN7rocksdb10LDBCommand11HexToStringERKNSt7__cxx1112basic_stringIcSt11char_traitsIcESaIcEEE
librocksdb.so.5.4:_ZN7rocksdb10LDBCommand11StringToHexERKNSt7__cxx1112basic_stringIcSt11char_traitsIcESaIcEEE
librocksdb.so.5.4:_ZN7rocksdb10LDBCommand12StringToBoolENSt7__cxx1112basic_stringIcSt11char_traitsIcESaIcEEE
librocksdb.so.5.4:_ZN7rocksdb10LDBCommand13ParseKeyValueERKNSt7__cxx1112basic_stringIcSt11char_traitsIcESaIcEEEPS6_S9_bb
librocksdb.so.5.4:_ZN7rocksdb10LDBCommand13PrintKeyValueERKNSt7__cxx1112basic_stringIcSt11char_traitsIcESaIcEEES8_b
librocksdb.so.5.4:_ZN7rocksdb10LDBCommand13PrintKeyValueERKNSt7__cxx1112basic_stringIcSt11char_traitsIcESaIcEEES8_bb
librocksdb.so.5.4:_ZN7rocksdb10LDBCommand13SelectCommandERKNS0_12ParsedParamsE
librocksdb.so.5.4:_ZN7rocksdb10LDBCommand14ParseIntOptionERKSt3mapINSt7__cxx1112basic_stringIcSt11char_traitsIcESaIcEEES7_St4lessIS7_ESaISt4pairIKS7_S7_EEERSB_RiRNS_23LDBCommandExecuteResultE
librocksdb.so.5.4:_ZN7rocksdb10LDBCommand16HelpRangeCmdArgsB5cxx11Ev
librocksdb.so.5.4:_ZN7rocksdb10LDBCommand17ParseStringOptionERKSt3mapINSt7__cxx1112basic_stringIcSt11char_traitsIcESaIcEEES7_St4lessIS7_ESaISt4pairIKS7_S7_EEERSB_PS7_
librocksdb.so.5.4:_ZN7rocksdb10LDBCommand18ParseBooleanOptionERKSt3mapINSt7__cxx1112basic_stringIcSt11char_traitsIcESaIcEEES7_St4lessIS7_ESaISt4pairIKS7_S7_EEERSB_b
librocksdb.so.5.4:_ZN7rocksdb10LDBCommand19BuildCmdLineOptionsESt6vectorINSt7__cxx1112basic_stringIcSt11char_traitsIcESaIcEEESaIS7_EE
librocksdb.so.5.4:_ZN7rocksdb10LDBCommand19InitFromCmdLineArgsERKSt6vectorINSt7__cxx1112basic_stringIcSt11char_traitsIcESaIcEEESaIS7_EERKNS_7OptionsERKNS_10LDBOptionsEPKS1_INS_22ColumnFamilyDescriptorESaISI_EERKSt8functionIFPS0_RKNS0_12ParsedParamsEEE
librocksdb.so.5.4:_ZN7rocksdb10LDBCommand19InitFromCmdLineArgsEiPPcRKNS_7OptionsERKNS_10LDBOptionsEPKSt6vectorINS_22ColumnFamilyDescriptorESaISA_EE
librocksdb.so.5.4:_ZN7rocksdb10LDBCommand22ValidateCmdLineOptionsEv
librocksdb.so.5.4:_ZN7rocksdb10LDBCommand23PrepareOptionsForOpenDBEv
librocksdb.so.5.4:_ZN7rocksdb10LDBCommand3RunEv
librocksdb.so.5.4:_ZN7rocksdb10LDBCommand6OpenDBEv
librocksdb.so.5.4:_ZN7rocksdb10LDBCommand7CloseDBEv
librocksdb.so.5.4:_ZN7rocksdb10LDBCommand8IsKeyHexERKSt3mapINSt7__cxx1112basic_stringIcSt11char_traitsIcESaIcEEES7_St4lessIS7_ESaISt4pairIKS7_S7_EEERKSt6vectorIS7_SaIS7_EE
librocksdb.so.5.4:_ZN7rocksdb10LDBCommandC1ERKSt3mapINSt7__cxx1112basic_stringIcSt11char_traitsIcESaIcEEES7_St4lessIS7_ESaISt4pairIKS7_S7_EEERKSt6vectorIS7_SaIS7_EEbSL_
librocksdb.so.5.4:_ZN7rocksdb10LDBCommandC2ERKSt3mapINSt7__cxx1112basic_stringIcSt11char_traitsIcESaIcEEES7_St4lessIS7_ESaISt4pairIKS7_S7_EEERKSt6vectorIS7_SaIS7_EEbSL_
librocksdb.so.5.4:_ZN7rocksdb10LDBOptionsC1Ev
librocksdb.so.5.4:_ZN7rocksdb10LDBOptionsC2Ev
librocksdb.so.5.4:_ZN7rocksdb10MemoryUtil31GetApproximateMemoryUsageByTypeERKSt6vectorIPNS_2DBESaIS3_EESt13unordered_setIPKNS_5CacheESt4hashISB_ESt8equal_toISB_ESaISB_EEPSt3mapINS0_9UsageTypeEmSt4lessISJ_ESaISt4pairIKSJ_mEEE
librocksdb.so.5.4:_ZN7rocksdb10NewHdfsEnvEPPNS_3EnvERKNSt7__cxx1112basic_stringIcSt11char_traitsIcESaIcEEE
librocksdb.so.5.4:_ZN7rocksdb10ParseSizeTERKNSt7__cxx1112basic_stringIcSt11char_traitsIcESaIcEEE
librocksdb.so.5.4:_ZN7rocksdb10PutCommand23PrepareOptionsForOpenDBEv
librocksdb.so.5.4:_ZN7rocksdb10PutCommand4HelpERNSt7__cxx1112basic_stringIcSt11char_traitsIcESaIcEEE
librocksdb.so.5.4:_ZN7rocksdb10PutCommand9DoCommandEv
librocksdb.so.5.4:_ZN7rocksdb10PutCommandC1ERKSt6vectorINSt7__cxx1112basic_stringIcSt11char_traitsIcESaIcEEESaIS7_EERKSt3mapIS7_S7_St4lessIS7_ESaISt4pairIKS7_S7_EEESB_
librocksdb.so.5.4:_ZN7rocksdb10PutCommandC2ERKSt6vectorINSt7__cxx1112basic_stringIcSt11char_traitsIcESaIcEEESaIS7_EERKSt3mapIS7_S7_St4lessIS7_ESaISt4pairIKS7_S7_EEESB_
librocksdb.so.5.4:_ZN7rocksdb10RedisLists10RemoveLastERKNSt7__cxx1112basic_stringIcSt11char_traitsIcESaIcEEEiS8_
librocksdb.so.5.4:_ZN7rocksdb10RedisLists11InsertAfterERKNSt7__cxx1112basic_stringIcSt11char_traitsIcESaIcEEES8_S8_
librocksdb.so.5.4:_ZN7rocksdb10RedisLists11RemoveFirstERKNSt7__cxx1112basic_stringIcSt11char_traitsIcESaIcEEEiS8_
librocksdb.so.5.4:_ZN7rocksdb10RedisLists12InsertBeforeERKNSt7__cxx1112basic_stringIcSt11char_traitsIcESaIcEEES8_S8_
librocksdb.so.5.4:_ZN7rocksdb10RedisLists3SetERKNSt7__cxx1112basic_stringIcSt11char_traitsIcESaIcEEEiS8_
librocksdb.so.5.4:_ZN7rocksdb10RedisLists4TrimERKNSt7__cxx1112basic_stringIcSt11char_traitsIcESaIcEEEii
librocksdb.so.5.4:_ZN7rocksdb10RedisLists5IndexERKNSt7__cxx1112basic_stringIcSt11char_traitsIcESaIcEEEiPS6_
librocksdb.so.5.4:_ZN7rocksdb10RedisLists5PrintERKNSt7__cxx1112basic_stringIcSt11char_traitsIcESaIcEEE
librocksdb.so.5.4:_ZN7rocksdb10RedisLists5RangeERKNSt7__cxx1112basic_stringIcSt11char_traitsIcESaIcEEEii
librocksdb.so.5.4:_ZN7rocksdb10RedisLists6InsertERKNSt7__cxx1112basic_stringIcSt11char_traitsIcESaIcEEES8_S8_b
librocksdb.so.5.4:_ZN7rocksdb10RedisLists6LengthERKNSt7__cxx1112basic_stringIcSt11char_traitsIcESaIcEEE
librocksdb.so.5.4:_ZN7rocksdb10RedisLists6RemoveERKNSt7__cxx1112basic_stringIcSt11char_traitsIcESaIcEEEiS8_
librocksdb.so.5.4:_ZN7rocksdb10RedisLists7PopLeftERKNSt7__cxx1112basic_stringIcSt11char_traitsIcESaIcEEEPS6_
librocksdb.so.5.4:_ZN7rocksdb10RedisLists8PopRightERKNSt7__cxx1112basic_stringIcSt11char_traitsIcESaIcEEEPS6_
librocksdb.so.5.4:_ZN7rocksdb10RedisLists8PushLeftERKNSt7__cxx1112basic_stringIcSt11char_traitsIcESaIcEEES8_
librocksdb.so.5.4:_ZN7rocksdb10RedisLists9PushRightERKNSt7__cxx1112basic_stringIcSt11char_traitsIcESaIcEEES8_
librocksdb.so.5.4:_ZN7rocksdb10RedisListsC1ERKNSt7__cxx1112basic_stringIcSt11char_traitsIcESaIcEEENS_7OptionsEb
librocksdb.so.5.4:_ZN7rocksdb10RedisListsC2ERKNSt7__cxx1112basic_stringIcSt11char_traitsIcESaIcEEENS_7OptionsEb
librocksdb.so.5.4:_ZN7rocksdb10TableCache11EraseHandleERKNS_14FileDescriptorEPNS_5Cache6HandleE
librocksdb.so.5.4:_ZN7rocksdb10TableCache11NewIteratorERKNS_11ReadOptionsERKNS_10EnvOptionsERKNS_21InternalKeyComparatorERKNS_14FileDescriptorEPNS_18RangeDelAggregatorEPPNS_11TableReaderEPNS_13HistogramImplEbPNS_5ArenaEbi
librocksdb.so.5.4:_ZN7rocksdb10TableCache13ReleaseHandleEPNS_5Cache6HandleE
librocksdb.so.5.4:_ZN7rocksdb10TableCache14GetTableReaderERKNS_10EnvOptionsERKNS_21InternalKeyComparatorERKNS_14FileDescriptorEbmbPNS_13HistogramImplEPSt10unique_ptrINS_11TableReaderESt14default_deleteISD_EEbib
librocksdb.so.5.4:_ZN7rocksdb10TableCache18GetTablePropertiesERKNS_10EnvOptionsERKNS_21InternalKeyComparatorERKNS_14FileDescriptorEPSt10shared_ptrIKNS_15TablePropertiesEEb
librocksdb.so.5.4:_ZN7rocksdb10TableCache24GetTableReaderFromHandleEPNS_5Cache6HandleE
librocksdb.so.5.4:_ZN7rocksdb10TableCache27GetMemoryUsageByTableReaderERKNS_10EnvOptionsERKNS_21InternalKeyComparatorERKNS_14FileDescriptorE
librocksdb.so.5.4:_ZN7rocksdb10TableCache3GetERKNS_11ReadOptionsERKNS_21InternalKeyComparatorERKNS_14FileDescriptorERKNS_5SliceEPNS_10GetContextEPNS_13HistogramImplEbi
librocksdb.so.5.4:_ZN7rocksdb10TableCache5EvictEPNS_5CacheEm
librocksdb.so.5.4:_ZN7rocksdb10TableCache9FindTableERKNS_10EnvOptionsERKNS_21InternalKeyComparatorERKNS_14FileDescriptorEPPNS_5Cache6HandleEbbPNS_13HistogramImplEbib
librocksdb.so.5.4:_ZN7rocksdb10TableCacheC1ERKNS_18ImmutableCFOptionsERKNS_10EnvOptionsEPNS_5CacheE
librocksdb.so.5.4:_ZN7rocksdb10TableCacheC2ERKNS_18ImmutableCFOptionsERKNS_10EnvOptionsEPNS_5CacheE
librocksdb.so.5.4:_ZN7rocksdb10TableCacheD1Ev
librocksdb.so.5.4:_ZN7rocksdb10TableCacheD2Ev
librocksdb.so.5.4:_ZN7rocksdb10VersionSet11LogAndApplyEPNS_16ColumnFamilyDataERKNS_16MutableCFOptionsERKNS_10autovectorIPNS_11VersionEditELm8EEEPNS_17InstrumentedMutexEPNS_9DirectoryEbPKNS_19ColumnFamilyOptionsE
librocksdb.so.5.4:_ZN7rocksdb10VersionSet12AddLiveFilesEPSt6vectorINS_14FileDescriptorESaIS2_EE
librocksdb.so.5.4:_ZN7rocksdb10VersionSet12DumpManifestERNS_7OptionsERNSt7__cxx1112basic_stringIcSt11char_traitsIcESaIcEEEbbb
librocksdb.so.5.4:_ZN7rocksdb10VersionSet13AppendVersionEPNS_16ColumnFamilyDataEPNS_7VersionE
librocksdb.so.5.4:_ZN7rocksdb10VersionSet13WriteSnapshotEPNS_3log6WriterE
librocksdb.so.5.4:_ZN7rocksdb10VersionSet15ApproximateSizeEPNS_7VersionERKNS_14FdWithKeyRangeERKNS_5SliceE
librocksdb.so.5.4:_ZN7rocksdb10VersionSet15ApproximateSizeEPNS_7VersionERKNS_5SliceES5_ii
librocksdb.so.5.4:_ZN7rocksdb10VersionSet16GetObsoleteFilesEPSt6vectorIPNS_12FileMetaDataESaIS3_EEPS1_INSt7__cxx1112basic_stringIcSt11char_traitsIcESaIcEEESaISC_EEm
librocksdb.so.5.4:_ZN7rocksdb10VersionSet17LogAndApplyHelperEPNS_16ColumnFamilyDataEPNS_14VersionBuilderEPNS_7VersionEPNS_11VersionEditEPNS_17InstrumentedMutexE
librocksdb.so.5.4:_ZN7rocksdb10VersionSet17MakeInputIteratorEPKNS_10CompactionEPNS_18RangeDelAggregatorE
librocksdb.so.5.4:_ZN7rocksdb10VersionSet18CreateColumnFamilyERKNS_19ColumnFamilyOptionsEPNS_11VersionEditE
librocksdb.so.5.4:_ZN7rocksdb10VersionSet18GetMetadataForFileEmPiPPNS_12FileMetaDataEPPNS_16ColumnFamilyDataE
librocksdb.so.5.4:_ZN7rocksdb10VersionSet18GetNumLiveVersionsEPNS_7VersionE
librocksdb.so.5.4:_ZN7rocksdb10VersionSet18ListColumnFamiliesEPSt6vectorINSt7__cxx1112basic_stringIcSt11char_traitsIcESaIcEEESaIS7_EERKS7_PNS_3EnvE
librocksdb.so.5.4:_ZN7rocksdb10VersionSet19LogAndApplyCFHelperEPNS_11VersionEditE
librocksdb.so.5.4:_ZN7rocksdb10VersionSet20GetLiveFilesMetaDataEPSt6vectorINS_16LiveFileMetaDataESaIS2_EE
librocksdb.so.5.4:_ZN7rocksdb10VersionSet20GetTotalSstFilesSizeEPNS_7VersionE
librocksdb.so.5.4:_ZN7rocksdb10VersionSet20ReduceNumberOfLevelsERKNSt7__cxx1112basic_stringIcSt11char_traitsIcESaIcEEEPKNS_7OptionsERKNS_10EnvOptionsEi
librocksdb.so.5.4:_ZN7rocksdb10VersionSet21ApproximateSizeLevel0EPNS_7VersionERKNS_15LevelFilesBriefERKNS_5SliceES8_
librocksdb.so.5.4:_ZN7rocksdb10VersionSet31VerifyCompactionFileConsistencyEPNS_10CompactionE
librocksdb.so.5.4:_ZN7rocksdb10VersionSet32MarkFileNumberUsedDuringRecoveryEm
librocksdb.so.5.4:_ZN7rocksdb10VersionSet7RecoverERKSt6vectorINS_22ColumnFamilyDescriptorESaIS2_EEb
librocksdb.so.5.4:_ZN7rocksdb10VersionSetC1ERKNSt7__cxx1112basic_stringIcSt11char_traitsIcESaIcEEEPKNS_18ImmutableDBOptionsERKNS_10EnvOptionsEPNS_5CacheEPNS_18WriteBufferManagerEPNS_15WriteControllerE
librocksdb.so.5.4:_ZN7rocksdb10VersionSetC2ERKNSt7__cxx1112basic_stringIcSt11char_traitsIcESaIcEEEPKNS_18ImmutableDBOptionsERKNS_10EnvOptionsEPNS_5CacheEPNS_18WriteBufferManagerEPNS_15WriteControllerE
librocksdb.so.5.4:_ZN7rocksdb10VersionSetD1Ev
librocksdb.so.5.4:_ZN7rocksdb10VersionSetD2Ev
librocksdb.so.5.4:_ZN7rocksdb10WalManager13ReadFirstLineERKNSt7__cxx1112basic_stringIcSt11char_traitsIcESaIcEEEmPm
librocksdb.so.5.4:_ZN7rocksdb10WalManager14ArchiveWALFileERKNSt7__cxx1112basic_stringIcSt11char_traitsIcESaIcEEEm
librocksdb.so.5.4:_ZN7rocksdb10WalManager15GetUpdatesSinceEmPSt10unique_ptrINS_22TransactionLogIteratorESt14default_deleteIS2_EERKNS2_11ReadOptionsEPNS_10VersionSetE
librocksdb.so.5.4:_ZN7rocksdb10WalManager15ReadFirstRecordENS_11WalFileTypeEmPm
librocksdb.so.5.4:_ZN7rocksdb10WalManager17GetSortedWalFilesERSt6vectorISt10unique_ptrINS_7LogFileESt14default_deleteIS3_EESaIS6_EE
librocksdb.so.5.4:_ZN7rocksdb10WalManager19GetSortedWalsOfTypeERKNSt7__cxx1112basic_stringIcSt11char_traitsIcESaIcEEERSt6vectorISt10unique_ptrINS_7LogFileESt14default_deleteISB_EESaISE_EENS_11WalFileTypeE
librocksdb.so.5.4:_ZN7rocksdb10WalManager21PurgeObsoleteWALFilesEv
librocksdb.so.5.4:_ZN7rocksdb10WalManager22RetainProbableWalFilesERSt6vectorISt10unique_ptrINS_7LogFileESt14default_deleteIS3_EESaIS6_EEm
librocksdb.so.5.4:_ZN7rocksdb10WriteBatch10PutLogDataERKNS_5SliceE
librocksdb.so.5.4:_ZN7rocksdb10WriteBatch11DeleteRangeEPNS_18ColumnFamilyHandleERKNS_10SlicePartsES5_
librocksdb.so.5.4:_ZN7rocksdb10WriteBatch11DeleteRangeEPNS_18ColumnFamilyHandleERKNS_5SliceES5_
librocksdb.so.5.4:_ZN7rocksdb10WriteBatch12SetSavePointEv
librocksdb.so.5.4:_ZN7rocksdb10WriteBatch12SingleDeleteEPNS_18ColumnFamilyHandleERKNS_10SlicePartsE
librocksdb.so.5.4:_ZN7rocksdb10WriteBatch12SingleDeleteEPNS_18ColumnFamilyHandleERKNS_5SliceE
librocksdb.so.5.4:_ZN7rocksdb10WriteBatch19RollbackToSavePointEv
librocksdb.so.5.4:_ZN7rocksdb10WriteBatch23MarkWalTerminationPointEv
librocksdb.so.5.4:_ZN7rocksdb10WriteBatch3PutEPNS_18ColumnFamilyHandleERKNS_10SlicePartsES5_
librocksdb.so.5.4:_ZN7rocksdb10WriteBatch3PutEPNS_18ColumnFamilyHandleERKNS_5SliceES5_
librocksdb.so.5.4:_ZN7rocksdb10WriteBatch5ClearEv
librocksdb.so.5.4:_ZN7rocksdb10WriteBatch5MergeEPNS_18ColumnFamilyHandleERKNS_10SlicePartsES5_
librocksdb.so.5.4:_ZN7rocksdb10WriteBatch5MergeEPNS_18ColumnFamilyHandleERKNS_5SliceES5_
librocksdb.so.5.4:_ZN7rocksdb10WriteBatch6DeleteEPNS_18ColumnFamilyHandleERKNS_10SlicePartsE
librocksdb.so.5.4:_ZN7rocksdb10WriteBatch6DeleteEPNS_18ColumnFamilyHandleERKNS_5SliceE
librocksdb.so.5.4:_ZN7rocksdb10WriteBatch7Handler7LogDataERKNS_5SliceE
librocksdb.so.5.4:_ZN7rocksdb10WriteBatch7Handler8ContinueEv
librocksdb.so.5.4:_ZN7rocksdb10WriteBatch7HandlerD0Ev
librocksdb.so.5.4:_ZN7rocksdb10WriteBatch7HandlerD1Ev
librocksdb.so.5.4:_ZN7rocksdb10WriteBatch7HandlerD2Ev
librocksdb.so.5.4:_ZN7rocksdb10WriteBatchC1EOS0_
librocksdb.so.5.4:_ZN7rocksdb10WriteBatchC1ERKNSt7__cxx1112basic_stringIcSt11char_traitsIcESaIcEEE
librocksdb.so.5.4:_ZN7rocksdb10WriteBatchC1ERKS0_
librocksdb.so.5.4:_ZN7rocksdb10WriteBatchC1Emm
librocksdb.so.5.4:_ZN7rocksdb10WriteBatchC2EOS0_
librocksdb.so.5.4:_ZN7rocksdb10WriteBatchC2ERKNSt7__cxx1112basic_stringIcSt11char_traitsIcESaIcEEE
librocksdb.so.5.4:_ZN7rocksdb10WriteBatchC2ERKS0_
librocksdb.so.5.4:_ZN7rocksdb10WriteBatchC2Emm
librocksdb.so.5.4:_ZN7rocksdb10WriteBatchD0Ev
librocksdb.so.5.4:_ZN7rocksdb10WriteBatchD1Ev
librocksdb.so.5.4:_ZN7rocksdb10WriteBatchD2Ev
librocksdb.so.5.4:_ZN7rocksdb10WriteBatchaSEOS0_
librocksdb.so.5.4:_ZN7rocksdb10WriteBatchaSERKS0_
librocksdb.so.5.4:_ZN7rocksdb10XXH32_initEj
librocksdb.so.5.4:_ZN7rocksdb11BlockHandle10DecodeFromEPNS_5SliceE
librocksdb.so.5.4:_ZN7rocksdb11CacheRecord11DeserializeERKNS_5SliceE
librocksdb.so.5.4:_ZN7rocksdb11CacheRecord6AppendEPSt6vectorIPNS_16CacheWriteBufferESaIS3_EEPmPKcm
librocksdb.so.5.4:_ZN7rocksdb11CacheRecord9SerializeEPSt6vectorIPNS_16CacheWriteBufferESaIS3_EEPm
librocksdb.so.5.4:_ZN7rocksdb11CloseTablesEPvm
librocksdb.so.5.4:_ZN7rocksdb11EventLogger11LogToBufferEPNS_9LogBufferERKNS_10JSONWriterE
librocksdb.so.5.4:_ZN7rocksdb11EventLogger3LogEPNS_6LoggerERKNS_10JSONWriterE
librocksdb.so.5.4:_ZN7rocksdb11EventLogger3LogERKNS_10JSONWriterE
librocksdb.so.5.4:_ZN7rocksdb11FileIndexer11CalculateLBERKSt6vectorIPNS_12FileMetaDataESaIS3_EES7_PNS0_10IndexLevelESt8functionIFiPKS2_SC_EESA_IFvPNS0_9IndexUnitEiEE
librocksdb.so.5.4:_ZN7rocksdb11FileIndexer11CalculateRBERKSt6vectorIPNS_12FileMetaDataESaIS3_EES7_PNS0_10IndexLevelESt8functionIFiPKS2_SC_EESA_IFvPNS0_9IndexUnitEiEE
librocksdb.so.5.4:_ZN7rocksdb11FileIndexer11UpdateIndexEPNS_5ArenaEmPSt6vectorIPNS_12FileMetaDataESaIS5_EE
librocksdb.so.5.4:_ZN7rocksdb11FileIndexerC1EPKNS_10ComparatorE
librocksdb.so.5.4:_ZN7rocksdb11FileIndexerC2EPKNS_10ComparatorE
librocksdb.so.5.4:_ZN7rocksdb11IsCacheFileERKNSt7__cxx1112basic_stringIcSt11char_traitsIcESaIcEEE
librocksdb.so.5.4:_ZN7rocksdb11LogFileNameERKNSt7__cxx1112basic_stringIcSt11char_traitsIcESaIcEEEm
librocksdb.so.5.4:_ZN7rocksdb11LogToBufferEPNS_9LogBufferEPKcz
librocksdb.so.5.4:_ZN7rocksdb11LogToBufferEPNS_9LogBufferEmPKcz
librocksdb.so.5.4:_ZN7rocksdb11MemTableRep3GetERKNS_9LookupKeyEPvPFbS4_PKcE
librocksdb.so.5.4:_ZN7rocksdb11MemTableRep8AllocateEmPPc
librocksdb.so.5.4:_ZN7rocksdb11MergeHelper10MergeUntilEPNS_16InternalIteratorEPNS_18RangeDelAggregatorEmb
librocksdb.so.5.4:_ZN7rocksdb11MergeHelper11FilterMergeERKNS_5SliceES3_
librocksdb.so.5.4:_ZN7rocksdb11MergeHelper14TimedFullMergeEPKNS_13MergeOperatorERKNS_5SliceEPS5_RKSt6vectorIS4_SaIS4_EEPNSt7__cxx1112basic_stringIcSt11char_traitsIcESaIcEEEPNS_6LoggerEPNS_10StatisticsEPNS_3EnvEPS4_
librocksdb.so.5.4:_ZN7rocksdb11NewLRUCacheEmibd
librocksdb.so.5.4:_ZN7rocksdb11NewSimCacheESt10shared_ptrINS_5CacheEEmi
librocksdb.so.5.4:_ZN7rocksdb11NewTimedEnvEPNS_3EnvE
librocksdb.so.5.4:_ZN7rocksdb11ParseDoubleERKNSt7__cxx1112basic_stringIcSt11char_traitsIcESaIcEEE
librocksdb.so.5.4:_ZN7rocksdb11ParseUint32ERKNSt7__cxx1112basic_stringIcSt11char_traitsIcESaIcEEE
librocksdb.so.5.4:_ZN7rocksdb11ParseUint64ERKNSt7__cxx1112basic_stringIcSt11char_traitsIcESaIcEEE
librocksdb.so.5.4:_ZN7rocksdb11PerfContext5ResetEv
librocksdb.so.5.4:_ZN7rocksdb11PosixHelper19GetUniqueIdFromFileEiPcm
librocksdb.so.5.4:_ZN7rocksdb11ReadOptionsC1Ebb
librocksdb.so.5.4:_ZN7rocksdb11ReadOptionsC1Ev
librocksdb.so.5.4:_ZN7rocksdb11ReadOptionsC2Ebb
librocksdb.so.5.4:_ZN7rocksdb11ReadOptionsC2Ev
librocksdb.so.5.4:_ZN7rocksdb11SSTDumpTool3RunEiPPc
librocksdb.so.5.4:_ZN7rocksdb11ScanCommand4HelpERNSt7__cxx1112basic_stringIcSt11char_traitsIcESaIcEEE
librocksdb.so.5.4:_ZN7rocksdb11ScanCommand9DoCommandEv
librocksdb.so.5.4:_ZN7rocksdb11ScanCommandC1ERKSt6vectorINSt7__cxx1112basic_stringIcSt11char_traitsIcESaIcEEESaIS7_EERKSt3mapIS7_S7_St4lessIS7_ESaISt4pairIKS7_S7_EEESB_
librocksdb.so.5.4:_ZN7rocksdb11ScanCommandC2ERKSt6vectorINSt7__cxx1112basic_stringIcSt11char_traitsIcESaIcEEESaIS7_EERKSt3mapIS7_S7_St4lessIS7_ESaISt4pairIKS7_S7_EEESB_
librocksdb.so.5.4:_ZN7rocksdb11StringSplitERKNSt7__cxx1112basic_stringIcSt11char_traitsIcESaIcEEEc
librocksdb.so.5.4:_ZN7rocksdb11StringToMapERKNSt7__cxx1112basic_stringIcSt11char_traitsIcESaIcEEEPSt13unordered_mapIS5_S5_St4hashIS5_ESt8equal_toIS5_ESaISt4pairIS6_S5_EEE
librocksdb.so.5.4:_ZN7rocksdb11VersionEdit10DecodeFromERKNS_5SliceE
librocksdb.so.5.4:_ZN7rocksdb11VersionEdit18DecodeNewFile4FromEPNS_5SliceE
librocksdb.so.5.4:_ZN7rocksdb11VersionEdit5ClearEv
librocksdb.so.5.4:_ZN7rocksdb11VersionEdit8GetLevelEPNS_5SliceEPiPPKc
librocksdb.so.5.4:_ZN7rocksdb11WriteThread10AwaitStateEPNS0_6WriterEhPNS0_17AdaptationContextE
librocksdb.so.5.4:_ZN7rocksdb11WriteThread13ExitUnbatchedEPNS0_6WriterE
librocksdb.so.5.4:_ZN7rocksdb11WriteThread14EnterUnbatchedEPNS0_6WriterEPNS_17InstrumentedMutexE
librocksdb.so.5.4:_ZN7rocksdb11WriteThread14JoinBatchGroupEPNS0_6WriterE
librocksdb.so.5.4:_ZN7rocksdb11WriteThread18BlockingAwaitStateEPNS0_6WriterEh
librocksdb.so.5.4:_ZN7rocksdb11WriteThread22CompleteParallelWorkerEPNS0_6WriterE
librocksdb.so.5.4:_ZN7rocksdb11WriteThread22EarlyExitParallelGroupEPNS0_6WriterE
librocksdb.so.5.4:_ZN7rocksdb11WriteThread22ExitAsBatchGroupLeaderEPNS0_6WriterES2_NS_6StatusE
librocksdb.so.5.4:_ZN7rocksdb11WriteThread23CreateMissingNewerLinksEPNS0_6WriterE
librocksdb.so.5.4:_ZN7rocksdb11WriteThread23EnterAsBatchGroupLeaderEPNS0_6WriterEPS2_PNS_10autovectorIS2_Lm8EEE
librocksdb.so.5.4:_ZN7rocksdb11WriteThread23LaunchParallelFollowersEPNS0_13ParallelGroupEm
librocksdb.so.5.4:_ZN7rocksdb11WriteThread7LinkOneEPNS0_6WriterEPb
librocksdb.so.5.4:_ZN7rocksdb11WriteThread8SetStateEPNS0_6WriterEh
librocksdb.so.5.4:_ZN7rocksdb11WriteThreadC1Emm
librocksdb.so.5.4:_ZN7rocksdb11WriteThreadC2Emm
librocksdb.so.5.4:_ZN7rocksdb12BackupEngine4OpenEPNS_3EnvERKNS_19BackupableDBOptionsEPPS0_
librocksdb.so.5.4:_ZN7rocksdb12BlobFileNameERKNSt7__cxx1112basic_stringIcSt11char_traitsIcESaIcEEEm
librocksdb.so.5.4:_ZN7rocksdb12BlockBuilder3AddERKNS_5SliceES3_
librocksdb.so.5.4:_ZN7rocksdb12BlockBuilder5ResetEv
librocksdb.so.5.4:_ZN7rocksdb12BlockBuilder6FinishEv
librocksdb.so.5.4:_ZN7rocksdb12BlockBuilderC1Eib
librocksdb.so.5.4:_ZN7rocksdb12BlockBuilderC2Eib
librocksdb.so.5.4:_ZN7rocksdb12DateTieredDB4OpenERKNS_7OptionsERKNSt7__cxx1112basic_stringIcSt11char_traitsIcESaIcEEEPPS0_llb
librocksdb.so.5.4:_ZN7rocksdb12DbUndumpTool3RunERKNS_13UndumpOptionsENS_7OptionsE
librocksdb.so.5.4:_ZN7rocksdb12DynamicBloom10SetRawDataEPhjj
librocksdb.so.5.4:_ZN7rocksdb12DynamicBloom12SetTotalBitsEPNS_9AllocatorEjjmPNS_6LoggerE
librocksdb.so.5.4:_ZN7rocksdb12DynamicBloomC1EPNS_9AllocatorEjjjPFjRKNS_5SliceEEmPNS_6LoggerE
librocksdb.so.5.4:_ZN7rocksdb12DynamicBloomC1EjPFjRKNS_5SliceEE
librocksdb.so.5.4:_ZN7rocksdb12DynamicBloomC2EPNS_9AllocatorEjjjPFjRKNS_5SliceEEmPNS_6LoggerE
librocksdb.so.5.4:_ZN7rocksdb12DynamicBloomC2EjPFjRKNS_5SliceEE
librocksdb.so.5.4:_ZN7rocksdb12EscapeStringB5cxx11ERKNS_5SliceE
librocksdb.so.5.4:_ZN7rocksdb12EventHelpers17AppendCurrentTimeEPNS_10JSONWriterE
librocksdb.so.5.4:_ZN7rocksdb12EventHelpers29LogAndNotifyTableFileDeletionEPNS_11EventLoggerEimRKNSt7__cxx1112basic_stringIcSt11char_traitsIcESaIcEEERKNS_6StatusESA_RKSt6vectorISt10shared_ptrINS_13EventListenerEESaISH_EE
librocksdb.so.5.4:_ZN7rocksdb12EventHelpers30NotifyTableFileCreationStartedERKSt6vectorISt10shared_ptrINS_13EventListenerEESaIS4_EERKNSt7__cxx1112basic_stringIcSt11char_traitsIcESaIcEEESG_SG_iNS_23TableFileCreationReasonE
librocksdb.so.5.4:_ZN7rocksdb12EventHelpers37LogAndNotifyTableFileCreationFinishedEPNS_11EventLoggerERKSt6vectorISt10shared_ptrINS_13EventListenerEESaIS6_EERKNSt7__cxx1112basic_stringIcSt11char_traitsIcESaIcEEESI_SI_iRKNS_14FileDescriptorERKNS_15TablePropertiesENS_23TableFileCreationReasonERKNS_6StatusE
librocksdb.so.5.4:_ZN7rocksdb12FilterPolicyD0Ev
librocksdb.so.5.4:_ZN7rocksdb12FilterPolicyD1Ev
librocksdb.so.5.4:_ZN7rocksdb12FilterPolicyD2Ev
librocksdb.so.5.4:_ZN7rocksdb12GetPerfLevelEv
librocksdb.so.5.4:_ZN7rocksdb12IndexBuilder18CreateIndexBuilderENS_22BlockBasedTableOptions9IndexTypeEPKNS_21InternalKeyComparatorEPKNS_25InternalKeySliceTransformERKS1_
librocksdb.so.5.4:_ZN7rocksdb12JSONDocument11DeserializeERKNS_5SliceE
librocksdb.so.5.4:_ZN7rocksdb12JSONDocument13InitFromValueEPKN5fbson10FbsonValueE
librocksdb.so.5.4:_ZN7rocksdb12JSONDocument19const_item_iteratorC1EOS1_
librocksdb.so.5.4:_ZN7rocksdb12JSONDocument19const_item_iteratorC1EPNS1_4ImplE
librocksdb.so.5.4:_ZN7rocksdb12JSONDocument19const_item_iteratorC2EOS1_
librocksdb.so.5.4:_ZN7rocksdb12JSONDocument19const_item_iteratorC2EPNS1_4ImplE
librocksdb.so.5.4:_ZN7rocksdb12JSONDocument19const_item_iteratorD1Ev
librocksdb.so.5.4:_ZN7rocksdb12JSONDocument19const_item_iteratorD2Ev
librocksdb.so.5.4:_ZN7rocksdb12JSONDocument19const_item_iteratordeB5cxx11Ev
librocksdb.so.5.4:_ZN7rocksdb12JSONDocument19const_item_iteratorneERKS1_
librocksdb.so.5.4:_ZN7rocksdb12JSONDocument19const_item_iteratorppEv
librocksdb.so.5.4:_ZN7rocksdb12JSONDocument22ItemsIteratorGeneratorC1ERKN5fbson9ObjectValE
librocksdb.so.5.4:_ZN7rocksdb12JSONDocument22ItemsIteratorGeneratorC2ERKN5fbson9ObjectValE
librocksdb.so.5.4:_ZN7rocksdb12JSONDocument9ParseJSONEPKc
librocksdb.so.5.4:_ZN7rocksdb12JSONDocumentC1ENS0_4TypeE
librocksdb.so.5.4:_ZN7rocksdb12JSONDocumentC1EOS0_
librocksdb.so.5.4:_ZN7rocksdb12JSONDocumentC1EPKc
librocksdb.so.5.4:_ZN7rocksdb12JSONDocumentC1EPN5fbson10FbsonValueEb
librocksdb.so.5.4:_ZN7rocksdb12JSONDocumentC1ERKNSt7__cxx1112basic_stringIcSt11char_traitsIcESaIcEEE
librocksdb.so.5.4:_ZN7rocksdb12JSONDocumentC1ERKS0_
librocksdb.so.5.4:_ZN7rocksdb12JSONDocumentC1Ea
librocksdb.so.5.4:_ZN7rocksdb12JSONDocumentC1Eb
librocksdb.so.5.4:_ZN7rocksdb12JSONDocumentC1Ed
librocksdb.so.5.4:_ZN7rocksdb12JSONDocumentC1Ei
librocksdb.so.5.4:_ZN7rocksdb12JSONDocumentC1El
librocksdb.so.5.4:_ZN7rocksdb12JSONDocumentC1Es
librocksdb.so.5.4:_ZN7rocksdb12JSONDocumentC1Ev
librocksdb.so.5.4:_ZN7rocksdb12JSONDocumentC2ENS0_4TypeE
librocksdb.so.5.4:_ZN7rocksdb12JSONDocumentC2EOS0_
librocksdb.so.5.4:_ZN7rocksdb12JSONDocumentC2EPKc
librocksdb.so.5.4:_ZN7rocksdb12JSONDocumentC2EPN5fbson10FbsonValueEb
librocksdb.so.5.4:_ZN7rocksdb12JSONDocumentC2ERKNSt7__cxx1112basic_stringIcSt11char_traitsIcESaIcEEE
librocksdb.so.5.4:_ZN7rocksdb12JSONDocumentC2ERKS0_
librocksdb.so.5.4:_ZN7rocksdb12JSONDocumentC2Ea
librocksdb.so.5.4:_ZN7rocksdb12JSONDocumentC2Eb
librocksdb.so.5.4:_ZN7rocksdb12JSONDocumentC2Ed
librocksdb.so.5.4:_ZN7rocksdb12JSONDocumentC2Ei
librocksdb.so.5.4:_ZN7rocksdb12JSONDocumentC2El
librocksdb.so.5.4:_ZN7rocksdb12JSONDocumentC2Es
librocksdb.so.5.4:_ZN7rocksdb12JSONDocumentC2Ev
librocksdb.so.5.4:_ZN7rocksdb12JSONDocumentaSES0_
librocksdb.so.5.4:_ZN7rocksdb12LockFileNameERKNSt7__cxx1112basic_stringIcSt11char_traitsIcESaIcEEE
librocksdb.so.5.4:_ZN7rocksdb12MemTableList17InstallNewVersionEv
librocksdb.so.5.4:_ZN7rocksdb12MemTableList20PickMemtablesToFlushEPNS_10autovectorIPNS_8MemTableELm8EEE
librocksdb.so.5.4:_ZN7rocksdb12MemTableList21RollbackMemtableFlushERKNS_10autovectorIPNS_8MemTableELm8EEEm
librocksdb.so.5.4:_ZN7rocksdb12MemTableList22ApproximateMemoryUsageEv
librocksdb.so.5.4:_ZN7rocksdb12MemTableList27InstallMemtableFlushResultsEPNS_16ColumnFamilyDataERKNS_16MutableCFOptionsERKNS_10autovectorIPNS_8MemTableELm8EEEPNS_10VersionSetEPNS_17InstrumentedMutexEmPS9_PNS_9DirectoryEPNS_9LogBufferE
librocksdb.so.5.4:_ZN7rocksdb12MemTableList30GetMinLogContainingPrepSectionEv
librocksdb.so.5.4:_ZN7rocksdb12MemTableList3AddEPNS_8MemTableEPNS_10autovectorIS2_Lm8EEE
librocksdb.so.5.4:_ZN7rocksdb12MemTableList40ApproximateUnflushedMemTablesMemoryUsageEv
librocksdb.so.5.4:_ZN7rocksdb12NewChrootEnvEPNS_3EnvERKNSt7__cxx1112basic_stringIcSt11char_traitsIcESaIcEEE
librocksdb.so.5.4:_ZN7rocksdb12ParseBooleanERKNSt7__cxx1112basic_stringIcSt11char_traitsIcESaIcEEES7_
librocksdb.so.5.4:_ZN7rocksdb12SetPerfLevelENS_9PerfLevelE
librocksdb.so.5.4:_ZN7rocksdb12ShardedCache11SetCapacityEm
librocksdb.so.5.4:_ZN7rocksdb12ShardedCache17EraseUnRefEntriesEv
librocksdb.so.5.4:_ZN7rocksdb12ShardedCache22ApplyToAllCacheEntriesEPFvPvmEb
librocksdb.so.5.4:_ZN7rocksdb12ShardedCache22SetStrictCapacityLimitEb
librocksdb.so.5.4:_ZN7rocksdb12ShardedCache3RefEPNS_5Cache6HandleE
librocksdb.so.5.4:_ZN7rocksdb12ShardedCache5EraseERKNS_5SliceE
librocksdb.so.5.4:_ZN7rocksdb12ShardedCache5NewIdEv
librocksdb.so.5.4:_ZN7rocksdb12ShardedCache6InsertERKNS_5SliceEPvmPFvS3_S4_EPPNS_5Cache6HandleENS7_8PriorityE
librocksdb.so.5.4:_ZN7rocksdb12ShardedCache6LookupERKNS_5SliceEPNS_10StatisticsE
librocksdb.so.5.4:_ZN7rocksdb12ShardedCache7ReleaseEPNS_5Cache6HandleE
librocksdb.so.5.4:_ZN7rocksdb12ShardedCacheC1Emib
librocksdb.so.5.4:_ZN7rocksdb12ShardedCacheC2Emib
librocksdb.so.5.4:_ZN7rocksdb12SuperVersion3RefEv
librocksdb.so.5.4:_ZN7rocksdb12SuperVersion4InitEPNS_8MemTableEPNS_19MemTableListVersionEPNS_7VersionE
librocksdb.so.5.4:_ZN7rocksdb12SuperVersion5UnrefEv
librocksdb.so.5.4:_ZN7rocksdb12SuperVersion7CleanupEv
librocksdb.so.5.4:_ZN7rocksdb12SuperVersionD1Ev
librocksdb.so.5.4:_ZN7rocksdb12SuperVersionD2Ev
librocksdb.so.5.4:_ZN7rocksdb12SyncManifestEPNS_3EnvEPKNS_18ImmutableDBOptionsEPNS_18WritableFileWriterE
librocksdb.so.5.4:_ZN7rocksdb12TempFileNameERKNSt7__cxx1112basic_stringIcSt11char_traitsIcESaIcEEEm
librocksdb.so.5.4:_ZN7rocksdb12ThreadStatus12GetStateNameB5cxx11ENS0_9StateTypeE
librocksdb.so.5.4:_ZN7rocksdb12ThreadStatus14MicrosToStringB5cxx11Em
librocksdb.so.5.4:_ZN7rocksdb12ThreadStatus16GetOperationNameB5cxx11ENS0_13OperationTypeE
librocksdb.so.5.4:_ZN7rocksdb12ThreadStatus17GetThreadTypeNameB5cxx11ENS0_10ThreadTypeE
librocksdb.so.5.4:_ZN7rocksdb12ThreadStatus21GetOperationStageNameB5cxx11ENS0_14OperationStageE
librocksdb.so.5.4:_ZN7rocksdb12ThreadStatus24GetOperationPropertyNameB5cxx11ENS0_13OperationTypeEi
librocksdb.so.5.4:_ZN7rocksdb12ThreadStatus28InterpretOperationPropertiesB5cxx11ENS0_13OperationTypeEPKm
librocksdb.so.5.4:_ZN7rocksdb12UnescapeCharEc
librocksdb.so.5.4:_ZN7rocksdb12WritableFileD0Ev
librocksdb.so.5.4:_ZN7rocksdb12WritableFileD1Ev
librocksdb.so.5.4:_ZN7rocksdb12WritableFileD2Ev
librocksdb.so.5.4:_ZN7rocksdb12XXH32_digestEPv
librocksdb.so.5.4:_ZN7rocksdb12XXH32_updateEPvPKvi
librocksdb.so.5.4:_ZN7rocksdb12experimental19SuggestCompactRangeEPNS_2DBEPKNS_5SliceES5_
librocksdb.so.5.4:_ZN7rocksdb12experimental19SuggestCompactRangeEPNS_2DBEPNS_18ColumnFamilyHandleEPKNS_5SliceES7_
librocksdb.so.5.4:_ZN7rocksdb12experimental9PromoteL0EPNS_2DBEPNS_18ColumnFamilyHandleEi
librocksdb.so.5.4:_ZN7rocksdb13BackupCommand4HelpERNSt7__cxx1112basic_stringIcSt11char_traitsIcESaIcEEE
librocksdb.so.5.4:_ZN7rocksdb13BackupCommand9DoCommandEv
librocksdb.so.5.4:_ZN7rocksdb13BackupCommandC1ERKSt6vectorINSt7__cxx1112basic_stringIcSt11char_traitsIcESaIcEEESaIS7_EERKSt3mapIS7_S7_St4lessIS7_ESaISt4pairIKS7_S7_EEESB_
librocksdb.so.5.4:_ZN7rocksdb13BackupCommandC2ERKSt6vectorINSt7__cxx1112basic_stringIcSt11char_traitsIcESaIcEEESaIS7_EERKSt3mapIS7_S7_St4lessIS7_ESaISt4pairIKS7_S7_EEESB_
librocksdb.so.5.4:_ZN7rocksdb13CompactionJob13LogCompactionEv
librocksdb.so.5.4:_ZN7rocksdb13CompactionJob17CleanupCompactionEv
librocksdb.so.5.4:_ZN7rocksdb13CompactionJob17RecordDroppedKeysERK24CompactionIterationStatsPNS_18CompactionJobStatsE
librocksdb.so.5.4:_ZN7rocksdb13CompactionJob19AggregateStatisticsEv
librocksdb.so.5.4:_ZN7rocksdb13CompactionJob21UpdateCompactionStatsEv
librocksdb.so.5.4:_ZN7rocksdb13CompactionJob23RecordCompactionIOStatsEv
librocksdb.so.5.4:_ZN7rocksdb13CompactionJob23ReportStartedCompactionEPNS_10CompactionE
librocksdb.so.5.4:_ZN7rocksdb13CompactionJob24InstallCompactionResultsERKNS_16MutableCFOptionsE
librocksdb.so.5.4:_ZN7rocksdb13CompactionJob24OpenCompactionOutputFileEPNS0_18SubcompactionStateE
librocksdb.so.5.4:_ZN7rocksdb13CompactionJob25ProcessKeyValueCompactionEPNS0_18SubcompactionStateE
librocksdb.so.5.4:_ZN7rocksdb13CompactionJob26FinishCompactionOutputFileERKNS_6StatusEPNS0_18SubcompactionStateEPNS_18RangeDelAggregatorEP24CompactionIterationStatsPKNS_5SliceE
librocksdb.so.5.4:_ZN7rocksdb13CompactionJob26GenSubcompactionBoundariesEv
librocksdb.so.5.4:_ZN7rocksdb13CompactionJob32UpdateCompactionInputStatsHelperEPiPmi
librocksdb.so.5.4:_ZN7rocksdb13CompactionJob3RunEv
librocksdb.so.5.4:_ZN7rocksdb13CompactionJob7InstallERKNS_16MutableCFOptionsE
librocksdb.so.5.4:_ZN7rocksdb13CompactionJob7PrepareEv
librocksdb.so.5.4:_ZN7rocksdb13CompactionJobC1EiPNS_10CompactionERKNS_18ImmutableDBOptionsERKNS_10EnvOptionsEPNS_10VersionSetEPKSt6atomicIbEPNS_9LogBufferEPNS_9DirectoryESI_PNS_10StatisticsEPNS_17InstrumentedMutexEPNS_6StatusESt6vectorImSaImEEmSt10shared_ptrINS_5CacheEEPNS_11EventLoggerEbbRKNSt7__cxx1112basic_stringIcSt11char_traitsIcESaIcEEEPNS_18CompactionJobStatsE
librocksdb.so.5.4:_ZN7rocksdb13CompactionJobC2EiPNS_10CompactionERKNS_18ImmutableDBOptionsERKNS_10EnvOptionsEPNS_10VersionSetEPKSt6atomicIbEPNS_9LogBufferEPNS_9DirectoryESI_PNS_10StatisticsEPNS_17InstrumentedMutexEPNS_6StatusESt6vectorImSaImEEmSt10shared_ptrINS_5CacheEEPNS_11EventLoggerEbbRKNSt7__cxx1112basic_stringIcSt11char_traitsIcESaIcEEEPNS_18CompactionJobStatsE
librocksdb.so.5.4:_ZN7rocksdb13CompactionJobD1Ev
librocksdb.so.5.4:_ZN7rocksdb13CompactionJobD2Ev
librocksdb.so.5.4:_ZN7rocksdb13CompressBlockERKNS_5SliceERKNS_18CompressionOptionsEPNS_15CompressionTypeEjS2_PNSt7__cxx1112basic_stringIcSt11char_traitsIcESaIcEEE
librocksdb.so.5.4:_ZN7rocksdb13DBWithTTLImpl11KeyMayExistERKNS_11ReadOptionsEPNS_18ColumnFamilyHandleERKNS_5SliceEPNSt7__cxx1112basic_stringIcSt11char_traitsIcESaIcEEEPb
librocksdb.so.5.4:_ZN7rocksdb13DBWithTTLImpl11NewIteratorERKNS_11ReadOptionsEPNS_18ColumnFamilyHandleE
librocksdb.so.5.4:_ZN7rocksdb13DBWithTTLImpl15SanitizeOptionsEiPNS_19ColumnFamilyOptionsEPNS_3EnvE
librocksdb.so.5.4:_ZN7rocksdb13DBWithTTLImpl18CreateColumnFamilyERKNS_19ColumnFamilyOptionsERKNSt7__cxx1112basic_stringIcSt11char_traitsIcESaIcEEEPPNS_18ColumnFamilyHandleE
librocksdb.so.5.4:_ZN7rocksdb13DBWithTTLImpl20SanityCheckTimestampERKNS_5SliceE
librocksdb.so.5.4:_ZN7rocksdb13DBWithTTLImpl25CreateColumnFamilyWithTtlERKNS_19ColumnFamilyOptionsERKNSt7__cxx1112basic_stringIcSt11char_traitsIcESaIcEEEPPNS_18ColumnFamilyHandleEi
librocksdb.so.5.4:_ZN7rocksdb13DBWithTTLImpl3GetERKNS_11ReadOptionsEPNS_18ColumnFamilyHandleERKNS_5SliceEPNS_13PinnableSliceE
librocksdb.so.5.4:_ZN7rocksdb13DBWithTTLImpl3PutERKNS_12WriteOptionsEPNS_18ColumnFamilyHandleERKNS_5SliceES8_
librocksdb.so.5.4:_ZN7rocksdb13DBWithTTLImpl5MergeERKNS_12WriteOptionsEPNS_18ColumnFamilyHandleERKNS_5SliceES8_
librocksdb.so.5.4:_ZN7rocksdb13DBWithTTLImpl5WriteERKNS_12WriteOptionsEPNS_10WriteBatchE
librocksdb.so.5.4:_ZN7rocksdb13DBWithTTLImpl7IsStaleERKNS_5SliceEiPNS_3EnvE
librocksdb.so.5.4:_ZN7rocksdb13DBWithTTLImpl7StripTSEPNS_13PinnableSliceE
librocksdb.so.5.4:_ZN7rocksdb13DBWithTTLImpl7StripTSEPNSt7__cxx1112basic_stringIcSt11char_traitsIcESaIcEEE
librocksdb.so.5.4:_ZN7rocksdb13DBWithTTLImpl8AppendTSERKNS_5SliceEPNSt7__cxx1112basic_stringIcSt11char_traitsIcESaIcEEEPNS_3EnvE
librocksdb.so.5.4:_ZN7rocksdb13DBWithTTLImpl8MultiGetERKNS_11ReadOptionsERKSt6vectorIPNS_18ColumnFamilyHandleESaIS6_EERKS4_INS_5SliceESaISB_EEPS4_INSt7__cxx1112basic_stringIcSt11char_traitsIcESaIcEEESaISL_EE
librocksdb.so.5.4:_ZN7rocksdb13DBWithTTLImplC1EPNS_2DBE
librocksdb.so.5.4:_ZN7rocksdb13DBWithTTLImplC2EPNS_2DBE
librocksdb.so.5.4:_ZN7rocksdb13DBWithTTLImplD0Ev
librocksdb.so.5.4:_ZN7rocksdb13DBWithTTLImplD1Ev
librocksdb.so.5.4:_ZN7rocksdb13DBWithTTLImplD2Ev
librocksdb.so.5.4:_ZN7rocksdb13DeleteCommand4HelpERNSt7__cxx1112basic_stringIcSt11char_traitsIcESaIcEEE
librocksdb.so.5.4:_ZN7rocksdb13DeleteCommand9DoCommandEv
librocksdb.so.5.4:_ZN7rocksdb13DeleteCommandC1ERKSt6vectorINSt7__cxx1112basic_stringIcSt11char_traitsIcESaIcEEESaIS7_EERKSt3mapIS7_S7_St4lessIS7_ESaISt4pairIKS7_S7_EEESB_
librocksdb.so.5.4:_ZN7rocksdb13DeleteCommandC2ERKSt6vectorINSt7__cxx1112basic_stringIcSt11char_traitsIcESaIcEEESaIS7_EERKSt3mapIS7_S7_St4lessIS7_ESaISt4pairIKS7_S7_EEESB_
librocksdb.so.5.4:_ZN7rocksdb13DeleteSSTFileEPKNS_18ImmutableDBOptionsERKNSt7__cxx1112basic_stringIcSt11char_traitsIcESaIcEEEj
librocksdb.so.5.4:_ZN7rocksdb13FindMetaBlockEPNS_16InternalIteratorERKNSt7__cxx1112basic_stringIcSt11char_traitsIcESaIcEEEPNS_11BlockHandleE
librocksdb.so.5.4:_ZN7rocksdb13FindMetaBlockEPNS_22RandomAccessFileReaderEmmRKNS_18ImmutableCFOptionsERKNSt7__cxx1112basic_stringIcSt11char_traitsIcESaIcEEEPNS_11BlockHandleE
librocksdb.so.5.4:_ZN7rocksdb13HistogramImpl3AddEm
librocksdb.so.5.4:_ZN7rocksdb13HistogramImpl5ClearEv
librocksdb.so.5.4:_ZN7rocksdb13HistogramImpl5MergeERKNS_9HistogramE
librocksdb.so.5.4:_ZN7rocksdb13HistogramImpl5MergeERKS0_
librocksdb.so.5.4:_ZN7rocksdb13HistogramStat3AddEm
librocksdb.so.5.4:_ZN7rocksdb13HistogramStat5ClearEv
librocksdb.so.5.4:_ZN7rocksdb13HistogramStat5MergeERKS0_
librocksdb.so.5.4:_ZN7rocksdb13HistogramStatC1Ev
librocksdb.so.5.4:_ZN7rocksdb13HistogramStatC2Ev
librocksdb.so.5.4:_ZN7rocksdb13InfoLogPrefixC1EbRKNSt7__cxx1112basic_stringIcSt11char_traitsIcESaIcEEE
librocksdb.so.5.4:_ZN7rocksdb13InfoLogPrefixC2EbRKNSt7__cxx1112basic_stringIcSt11char_traitsIcESaIcEEE
librocksdb.so.5.4:_ZN7rocksdb13InternalStats11DumpCFStatsEPNSt7__cxx1112basic_stringIcSt11char_traitsIcESaIcEEE
librocksdb.so.5.4:_ZN7rocksdb13InternalStats11DumpDBStatsEPNSt7__cxx1112basic_stringIcSt11char_traitsIcESaIcEEE
librocksdb.so.5.4:_ZN7rocksdb13InternalStats11HandleStatsEPNSt7__cxx1112basic_stringIcSt11char_traitsIcESaIcEEENS_5SliceE
librocksdb.so.5.4:_ZN7rocksdb13InternalStats13HandleCFStatsEPNSt7__cxx1112basic_stringIcSt11char_traitsIcESaIcEEENS_5SliceE
librocksdb.so.5.4:_ZN7rocksdb13InternalStats13HandleDBStatsEPNSt7__cxx1112basic_stringIcSt11char_traitsIcESaIcEEENS_5SliceE
librocksdb.so.5.4:_ZN7rocksdb13InternalStats14DumpCFMapStatsEPSt3mapINSt7__cxx1112basic_stringIcSt11char_traitsIcESaIcEEEdSt4lessIS7_ESaISt4pairIKS7_dEEE
librocksdb.so.5.4:_ZN7rocksdb13InternalStats14DumpCFMapStatsEPSt3mapIiS1_INS_13LevelStatTypeEdSt4lessIS2_ESaISt4pairIKS2_dEEES3_IiESaIS5_IKiS9_EEEPNS0_15CompactionStatsE
librocksdb.so.5.4:_ZN7rocksdb13InternalStats14GetIntPropertyERKNS_14DBPropertyInfoEPmPNS_6DBImplE
librocksdb.so.5.4:_ZN7rocksdb13InternalStats14GetMapPropertyERKNS_14DBPropertyInfoERKNS_5SliceEPSt3mapINSt7__cxx1112basic_stringIcSt11char_traitsIcESaIcEEEdSt4lessISD_ESaISt4pairIKSD_dEEE
librocksdb.so.5.4:_ZN7rocksdb13InternalStats14HandleSsTablesEPNSt7__cxx1112basic_stringIcSt11char_traitsIcESaIcEEENS_5SliceE
librocksdb.so.5.4:_ZN7rocksdb13InternalStats15HandleBaseLevelEPmPNS_6DBImplEPNS_7VersionE
librocksdb.so.5.4:_ZN7rocksdb13InternalStats16HandleCFMapStatsEPSt3mapINSt7__cxx1112basic_stringIcSt11char_traitsIcESaIcEEEdSt4lessIS7_ESaISt4pairIKS7_dEEE
librocksdb.so.5.4:_ZN7rocksdb13InternalStats16HandleLevelStatsEPNSt7__cxx1112basic_stringIcSt11char_traitsIcESaIcEEENS_5SliceE
librocksdb.so.5.4:_ZN7rocksdb13InternalStats17GetStringPropertyERKNS_14DBPropertyInfoERKNS_5SliceEPNSt7__cxx1112basic_stringIcSt11char_traitsIcESaIcEEE
librocksdb.so.5.4:_ZN7rocksdb13InternalStats18HandleNumSnapshotsEPmPNS_6DBImplEPNS_7VersionE
librocksdb.so.5.4:_ZN7rocksdb13InternalStats19DumpCFFileHistogramEPNSt7__cxx1112basic_stringIcSt11char_traitsIcESaIcEEE
librocksdb.so.5.4:_ZN7rocksdb13InternalStats20HandleIsWriteStoppedEPmPNS_6DBImplEPNS_7VersionE
librocksdb.so.5.4:_ZN7rocksdb13InternalStats21HandleCFFileHistogramEPNSt7__cxx1112basic_stringIcSt11char_traitsIcESaIcEEENS_5SliceE
librocksdb.so.5.4:_ZN7rocksdb13InternalStats21HandleEstimateNumKeysEPmPNS_6DBImplEPNS_7VersionE
librocksdb.so.5.4:_ZN7rocksdb13InternalStats21HandleNumFilesAtLevelEPNSt7__cxx1112basic_stringIcSt11char_traitsIcESaIcEEENS_5SliceE
librocksdb.so.5.4:_ZN7rocksdb13InternalStats21HandleNumLiveVersionsEPmPNS_6DBImplEPNS_7VersionE
librocksdb.so.5.4:_ZN7rocksdb13InternalStats22HandleBackgroundErrorsEPmPNS_6DBImplEPNS_7VersionE
librocksdb.so.5.4:_ZN7rocksdb13InternalStats22HandleSizeAllMemTablesEPmPNS_6DBImplEPNS_7VersionE
librocksdb.so.5.4:_ZN7rocksdb13InternalStats23HandleCompactionPendingEPmPNS_6DBImplEPNS_7VersionE
librocksdb.so.5.4:_ZN7rocksdb13InternalStats23HandleNumRunningFlushesEPmPNS_6DBImplEPNS_7VersionE
librocksdb.so.5.4:_ZN7rocksdb13InternalStats23HandleTotalSstFilesSizeEPmPNS_6DBImplEPNS_7VersionE
librocksdb.so.5.4:_ZN7rocksdb13InternalStats24GetIntPropertyOutOfMutexERKNS_14DBPropertyInfoEPNS_7VersionEPm
librocksdb.so.5.4:_ZN7rocksdb13InternalStats24HandleMinLogNumberToKeepEPmPNS_6DBImplEPNS_7VersionE
librocksdb.so.5.4:_ZN7rocksdb13InternalStats24HandleOldestSnapshotTimeEPmPNS_6DBImplEPNS_7VersionE
librocksdb.so.5.4:_ZN7rocksdb13InternalStats25HandleCurSizeAllMemTablesEPmPNS_6DBImplEPNS_7VersionE
librocksdb.so.5.4:_ZN7rocksdb13InternalStats26DumpCFStatsNoFileHistogramEPNSt7__cxx1112basic_stringIcSt11char_traitsIcESaIcEEE
librocksdb.so.5.4:_ZN7rocksdb13InternalStats26HandleEstimateLiveDataSizeEPmPNS_6DBImplEPNS_7VersionE
librocksdb.so.5.4:_ZN7rocksdb13InternalStats26HandleMemTableFlushPendingEPmPNS_6DBImplEPNS_7VersionE
librocksdb.so.5.4:_ZN7rocksdb13InternalStats26HandleNumImmutableMemTableEPmPNS_6DBImplEPNS_7VersionE
librocksdb.so.5.4:_ZN7rocksdb13InternalStats27HandleCurSizeActiveMemTableEPmPNS_6DBImplEPNS_7VersionE
librocksdb.so.5.4:_ZN7rocksdb13InternalStats27HandleNumRunningCompactionsEPmPNS_6DBImplEPNS_7VersionE
librocksdb.so.5.4:_ZN7rocksdb13InternalStats28HandleActualDelayedWriteRateEPmPNS_6DBImplEPNS_7VersionE
librocksdb.so.5.4:_ZN7rocksdb13InternalStats28HandleCFStatsNoFileHistogramEPNSt7__cxx1112basic_stringIcSt11char_traitsIcESaIcEEENS_5SliceE
librocksdb.so.5.4:_ZN7rocksdb13InternalStats28HandleIsFileDeletionsEnabledEPmPNS_6DBImplEPNS_7VersionE
librocksdb.so.5.4:_ZN7rocksdb13InternalStats28HandleNumDeletesImmMemTablesEPmPNS_6DBImplEPNS_7VersionE
librocksdb.so.5.4:_ZN7rocksdb13InternalStats28HandleNumEntriesImmMemTablesEPmPNS_6DBImplEPNS_7VersionE
librocksdb.so.5.4:_ZN7rocksdb13InternalStats29HandleEstimateTableReadersMemEPmPNS_6DBImplEPNS_7VersionE
librocksdb.so.5.4:_ZN7rocksdb13InternalStats30HandleNumDeletesActiveMemTableEPmPNS_6DBImplEPNS_7VersionE
librocksdb.so.5.4:_ZN7rocksdb13InternalStats30HandleNumEntriesActiveMemTableEPmPNS_6DBImplEPNS_7VersionE
librocksdb.so.5.4:_ZN7rocksdb13InternalStats31HandleAggregatedTablePropertiesEPNSt7__cxx1112basic_stringIcSt11char_traitsIcESaIcEEENS_5SliceE
librocksdb.so.5.4:_ZN7rocksdb13InternalStats31HandleCurrentSuperVersionNumberEPmPNS_6DBImplEPNS_7VersionE
librocksdb.so.5.4:_ZN7rocksdb13InternalStats33HandleNumImmutableMemTableFlushedEPmPNS_6DBImplEPNS_7VersionE
librocksdb.so.5.4:_ZN7rocksdb13InternalStats35HandleCompressionRatioAtLevelPrefixEPNSt7__cxx1112basic_stringIcSt11char_traitsIcESaIcEEENS_5SliceE
librocksdb.so.5.4:_ZN7rocksdb13InternalStats36HandleEstimatePendingCompactionBytesEPmPNS_6DBImplEPNS_7VersionE
librocksdb.so.5.4:_ZN7rocksdb13InternalStats38HandleAggregatedTablePropertiesAtLevelEPNSt7__cxx1112basic_stringIcSt11char_traitsIcESaIcEEENS_5SliceE
librocksdb.so.5.4:_ZN7rocksdb13LRUCacheShard10LRU_InsertEPNS_9LRUHandleE
librocksdb.so.5.4:_ZN7rocksdb13LRUCacheShard10LRU_RemoveEPNS_9LRUHandleE
librocksdb.so.5.4:_ZN7rocksdb13LRUCacheShard11SetCapacityEm
librocksdb.so.5.4:_ZN7rocksdb13LRUCacheShard12EvictFromLRUEmPNS_10autovectorIPNS_9LRUHandleELm8EEE
librocksdb.so.5.4:_ZN7rocksdb13LRUCacheShard15TEST_GetLRUListEPPNS_9LRUHandleES3_
librocksdb.so.5.4:_ZN7rocksdb13LRUCacheShard16MaintainPoolSizeEv
librocksdb.so.5.4:_ZN7rocksdb13LRUCacheShard17EraseUnRefEntriesEv
librocksdb.so.5.4:_ZN7rocksdb13LRUCacheShard22ApplyToAllCacheEntriesEPFvPvmEb
librocksdb.so.5.4:_ZN7rocksdb13LRUCacheShard22SetStrictCapacityLimitEb
librocksdb.so.5.4:_ZN7rocksdb13LRUCacheShard24SetHighPriorityPoolRatioEd
librocksdb.so.5.4:_ZN7rocksdb13LRUCacheShard3RefEPNS_5Cache6HandleE
librocksdb.so.5.4:_ZN7rocksdb13LRUCacheShard5EraseERKNS_5SliceEj
librocksdb.so.5.4:_ZN7rocksdb13LRUCacheShard5UnrefEPNS_9LRUHandleE
librocksdb.so.5.4:_ZN7rocksdb13LRUCacheShard6InsertERKNS_5SliceEjPvmPFvS3_S4_EPPNS_5Cache6HandleENS7_8PriorityE
librocksdb.so.5.4:_ZN7rocksdb13LRUCacheShard6LookupERKNS_5SliceEj
librocksdb.so.5.4:_ZN7rocksdb13LRUCacheShard7ReleaseEPNS_5Cache6HandleE
librocksdb.so.5.4:_ZN7rocksdb13LRUCacheShardC1Ev
librocksdb.so.5.4:_ZN7rocksdb13LRUCacheShardC2Ev
librocksdb.so.5.4:_ZN7rocksdb13LRUCacheShardD0Ev
librocksdb.so.5.4:_ZN7rocksdb13LRUCacheShardD1Ev
librocksdb.so.5.4:_ZN7rocksdb13LRUCacheShardD2Ev
librocksdb.so.5.4:_ZN7rocksdb13NewClockCacheEmib
librocksdb.so.5.4:_ZN7rocksdb13NewDBIteratorEPNS_3EnvERKNS_11ReadOptionsERKNS_18ImmutableCFOptionsEPKNS_10ComparatorEPNS_16InternalIteratorERKmmm
librocksdb.so.5.4:_ZN7rocksdb13NewThreadPoolEi
librocksdb.so.5.4:_ZN7rocksdb13ParseDBOptionERKNSt7__cxx1112basic_stringIcSt11char_traitsIcESaIcEEES7_PNS_9DBOptionsEb
librocksdb.so.5.4:_ZN7rocksdb13ParseFileNameERKNSt7__cxx1112basic_stringIcSt11char_traitsIcESaIcEEEPmPNS_8FileTypeEPNS_11WalFileTypeE
librocksdb.so.5.4:_ZN7rocksdb13ParseFileNameERKNSt7__cxx1112basic_stringIcSt11char_traitsIcESaIcEEEPmRKNS_5SliceEPNS_8FileTypeEPNS_11WalFileTypeE
librocksdb.so.5.4:_ZN7rocksdb13PosixMmapFile11GetFileSizeEv
librocksdb.so.5.4:_ZN7rocksdb13PosixMmapFile12MapNewRegionEv
librocksdb.so.5.4:_ZN7rocksdb13PosixMmapFile15InvalidateCacheEmm
librocksdb.so.5.4:_ZN7rocksdb13PosixMmapFile18UnmapCurrentRegionEv
librocksdb.so.5.4:_ZN7rocksdb13PosixMmapFile4SyncEv
librocksdb.so.5.4:_ZN7rocksdb13PosixMmapFile5CloseEv
librocksdb.so.5.4:_ZN7rocksdb13PosixMmapFile5FlushEv
librocksdb.so.5.4:_ZN7rocksdb13PosixMmapFile5FsyncEv
librocksdb.so.5.4:_ZN7rocksdb13PosixMmapFile5MsyncEv
librocksdb.so.5.4:_ZN7rocksdb13PosixMmapFile6AppendERKNS_5SliceE
librocksdb.so.5.4:_ZN7rocksdb13PosixMmapFile8AllocateEmm
librocksdb.so.5.4:_ZN7rocksdb13PosixMmapFileC1ERKNSt7__cxx1112basic_stringIcSt11char_traitsIcESaIcEEEimRKNS_10EnvOptionsE
librocksdb.so.5.4:_ZN7rocksdb13PosixMmapFileC2ERKNSt7__cxx1112basic_stringIcSt11char_traitsIcESaIcEEEimRKNS_10EnvOptionsE
librocksdb.so.5.4:_ZN7rocksdb13PosixMmapFileD0Ev
librocksdb.so.5.4:_ZN7rocksdb13PosixMmapFileD1Ev
librocksdb.so.5.4:_ZN7rocksdb13PosixMmapFileD2Ev
librocksdb.so.5.4:_ZN7rocksdb13ReadMetaBlockEPNS_22RandomAccessFileReaderEmmRKNS_18ImmutableCFOptionsERKNSt7__cxx1112basic_stringIcSt11char_traitsIcESaIcEEEPNS_13BlockContentsE
librocksdb.so.5.4:_ZN7rocksdb13RepairCommand4HelpERNSt7__cxx1112basic_stringIcSt11char_traitsIcESaIcEEE
librocksdb.so.5.4:_ZN7rocksdb13RepairCommand9DoCommandEv
librocksdb.so.5.4:_ZN7rocksdb13RepairCommandC1ERKSt6vectorINSt7__cxx1112basic_stringIcSt11char_traitsIcESaIcEEESaIS7_EERKSt3mapIS7_S7_St4lessIS7_ESaISt4pairIKS7_S7_EEESB_
librocksdb.so.5.4:_ZN7rocksdb13RepairCommandC2ERKSt6vectorINSt7__cxx1112basic_stringIcSt11char_traitsIcESaIcEEESaIS7_EERKSt3mapIS7_S7_St4lessIS7_ESaISt4pairIKS7_S7_EEESB_
librocksdb.so.5.4:_ZN7rocksdb13SstFileReader14GetTableReaderERKNSt7__cxx1112basic_stringIcSt11char_traitsIcESaIcEEE
librocksdb.so.5.4:_ZN7rocksdb13SstFileReader14NewTableReaderERKNS_18ImmutableCFOptionsERKNS_10EnvOptionsERKNS_21InternalKeyComparatorEmPSt10unique_ptrINS_11TableReaderESt14default_deleteISB_EE
librocksdb.so.5.4:_ZN7rocksdb13SstFileReader14ReadSequentialEbmbRKNSt7__cxx1112basic_stringIcSt11char_traitsIcESaIcEEEbS8_b
librocksdb.so.5.4:_ZN7rocksdb13SstFileReader18SetOldTableOptionsEv
librocksdb.so.5.4:_ZN7rocksdb13SstFileReader19ReadTablePropertiesEPSt10shared_ptrIKNS_15TablePropertiesEE
librocksdb.so.5.4:_ZN7rocksdb13SstFileReader19ReadTablePropertiesEmPNS_22RandomAccessFileReaderEm
librocksdb.so.5.4:_ZN7rocksdb13SstFileReader23ShowAllCompressionSizesEm
librocksdb.so.5.4:_ZN7rocksdb13SstFileReader28CalculateCompressedTableSizeERKNS_19TableBuilderOptionsEm
librocksdb.so.5.4:_ZN7rocksdb13SstFileReader28SetTableOptionsByMagicNumberEm
librocksdb.so.5.4:_ZN7rocksdb13SstFileReader9DumpTableERKNSt7__cxx1112basic_stringIcSt11char_traitsIcESaIcEEE
librocksdb.so.5.4:_ZN7rocksdb13SstFileReaderC1ERKNSt7__cxx1112basic_stringIcSt11char_traitsIcESaIcEEEbb
librocksdb.so.5.4:_ZN7rocksdb13SstFileReaderC2ERKNSt7__cxx1112basic_stringIcSt11char_traitsIcESaIcEEEbb
librocksdb.so.5.4:_ZN7rocksdb13SstFileWriter19InvalidatePageCacheEb
librocksdb.so.5.4:_ZN7rocksdb13SstFileWriter3AddERKNS_5SliceES3_
librocksdb.so.5.4:_ZN7rocksdb13SstFileWriter4OpenERKNSt7__cxx1112basic_stringIcSt11char_traitsIcESaIcEEE
librocksdb.so.5.4:_ZN7rocksdb13SstFileWriter6FinishEPNS_19ExternalSstFileInfoE
librocksdb.so.5.4:_ZN7rocksdb13SstFileWriter8FileSizeEv
librocksdb.so.5.4:_ZN7rocksdb13SstFileWriterC1ERKNS_10EnvOptionsERKNS_7OptionsEPKNS_10ComparatorEPNS_18ColumnFamilyHandleEb
librocksdb.so.5.4:_ZN7rocksdb13SstFileWriterC2ERKNS_10EnvOptionsERKNS_7OptionsEPKNS_10ComparatorEPNS_18ColumnFamilyHandleEb
librocksdb.so.5.4:_ZN7rocksdb13SstFileWriterD1Ev
librocksdb.so.5.4:_ZN7rocksdb13SstFileWriterD2Ev
librocksdb.so.5.4:_ZN7rocksdb13TableFileNameB5cxx11ERKSt6vectorINS_6DbPathESaIS1_EEmj
librocksdb.so.5.4:_ZN7rocksdb13TotalFileSizeERKSt6vectorIPNS_12FileMetaDataESaIS2_EE
librocksdb.so.5.4:_ZN7rocksdb13TransactionDB11PrepareWrapEPNS_9DBOptionsEPSt6vectorINS_22ColumnFamilyDescriptorESaIS4_EEPS3_ImSaImEE
librocksdb.so.5.4:_ZN7rocksdb13TransactionDB15WrapStackableDBEPNS_11StackableDBERKNS_20TransactionDBOptionsERKSt6vectorImSaImEERKS6_IPNS_18ColumnFamilyHandleESaISC_EEPPS0_
librocksdb.so.5.4:_ZN7rocksdb13TransactionDB4OpenERKNS_7OptionsERKNS_20TransactionDBOptionsERKNSt7__cxx1112basic_stringIcSt11char_traitsIcESaIcEEEPPS0_
librocksdb.so.5.4:_ZN7rocksdb13TransactionDB4OpenERKNS_9DBOptionsERKNS_20TransactionDBOptionsERKNSt7__cxx1112basic_stringIcSt11char_traitsIcESaIcEEERKSt6vectorINS_22ColumnFamilyDescriptorESaISG_EEPSF_IPNS_18ColumnFamilyHandleESaISM_EEPPS0_
librocksdb.so.5.4:_ZN7rocksdb13TransactionDB6WrapDBEPNS_2DBERKNS_20TransactionDBOptionsERKSt6vectorImSaImEERKS6_IPNS_18ColumnFamilyHandleESaISC_EEPPS0_
librocksdb.so.5.4:_ZN7rocksdb13isSpecialCharEc
librocksdb.so.5.4:_ZN7rocksdb14AppendNumberToEPNSt7__cxx1112basic_stringIcSt11char_traitsIcESaIcEEEm
librocksdb.so.5.4:_ZN7rocksdb14AutoRollLogger10LogExpiredEv
librocksdb.so.5.4:_ZN7rocksdb14AutoRollLogger11LogInternalEPKcz
librocksdb.so.5.4:_ZN7rocksdb14AutoRollLogger11ResetLoggerEv
librocksdb.so.5.4:_ZN7rocksdb14AutoRollLogger11RollLogFileEv
librocksdb.so.5.4:_ZN7rocksdb14AutoRollLogger15WriteHeaderInfoEv
librocksdb.so.5.4:_ZN7rocksdb14AutoRollLogger4LogvEPKcP13__va_list_tag
librocksdb.so.5.4:_ZN7rocksdb14AutoRollLogger9LogHeaderEPKcP13__va_list_tag
librocksdb.so.5.4:_ZN7rocksdb14BlockCacheFile6DeleteEPm
librocksdb.so.5.4:_ZN7rocksdb14BlockCacheTier10InsertImplERKNS_5SliceES3_
librocksdb.so.5.4:_ZN7rocksdb14BlockCacheTier10InsertMainEv
librocksdb.so.5.4:_ZN7rocksdb14BlockCacheTier12NewCacheFileEv
librocksdb.so.5.4:_ZN7rocksdb14BlockCacheTier18CleanupCacheFolderERKNSt7__cxx1112basic_stringIcSt11char_traitsIcESaIcEEE
librocksdb.so.5.4:_ZN7rocksdb14BlockCacheTier4OpenEv
librocksdb.so.5.4:_ZN7rocksdb14BlockCacheTier5CloseEv
librocksdb.so.5.4:_ZN7rocksdb14BlockCacheTier5EraseERKNS_5SliceE
librocksdb.so.5.4:_ZN7rocksdb14BlockCacheTier5StatsB5cxx11Ev
librocksdb.so.5.4:_ZN7rocksdb14BlockCacheTier6InsertERKNS_5SliceEPKcm
librocksdb.so.5.4:_ZN7rocksdb14BlockCacheTier6LookupERKNS_5SliceEPSt10unique_ptrIA_cSt14default_deleteIS5_EEPm
librocksdb.so.5.4:_ZN7rocksdb14BlockCacheTier7ReserveEm
librocksdb.so.5.4:_ZN7rocksdb14BuildDBOptionsERKNS_18ImmutableDBOptionsERKNS_16MutableDBOptionsE
librocksdb.so.5.4:_ZN7rocksdb14CheckpointImpl16CreateCheckpointERKNSt7__cxx1112basic_stringIcSt11char_traitsIcESaIcEEEm
librocksdb.so.5.4:_ZN7rocksdb14ConvertOptionsERKNS_14LevelDBOptionsE
librocksdb.so.5.4:_ZN7rocksdb14DBImplReadOnly11NewIteratorERKNS_11ReadOptionsEPNS_18ColumnFamilyHandleE
librocksdb.so.5.4:_ZN7rocksdb14DBImplReadOnly12NewIteratorsERKNS_11ReadOptionsERKSt6vectorIPNS_18ColumnFamilyHandleESaIS6_EEPS4_IPNS_8IteratorESaISC_EE
librocksdb.so.5.4:_ZN7rocksdb14DBImplReadOnly3GetERKNS_11ReadOptionsEPNS_18ColumnFamilyHandleERKNS_5SliceEPNS_13PinnableSliceE
librocksdb.so.5.4:_ZN7rocksdb14DBImplReadOnlyC1ERKNS_9DBOptionsERKNSt7__cxx1112basic_stringIcSt11char_traitsIcESaIcEEE
librocksdb.so.5.4:_ZN7rocksdb14DBImplReadOnlyC2ERKNS_9DBOptionsERKNSt7__cxx1112basic_stringIcSt11char_traitsIcESaIcEEE
librocksdb.so.5.4:_ZN7rocksdb14DBImplReadOnlyD0Ev
librocksdb.so.5.4:_ZN7rocksdb14DBImplReadOnlyD1Ev
librocksdb.so.5.4:_ZN7rocksdb14DBImplReadOnlyD2Ev
librocksdb.so.5.4:_ZN7rocksdb14EncodeVarint32EPcj
librocksdb.so.5.4:_ZN7rocksdb14FlushScheduler13ScheduleFlushEPNS_16ColumnFamilyDataE
librocksdb.so.5.4:_ZN7rocksdb14FlushScheduler20TakeNextColumnFamilyEv
librocksdb.so.5.4:_ZN7rocksdb14FlushScheduler5ClearEv
librocksdb.so.5.4:_ZN7rocksdb14FlushScheduler5EmptyEv
librocksdb.so.5.4:_ZN7rocksdb14GetDeletedKeysERKSt3mapINSt7__cxx1112basic_stringIcSt11char_traitsIcESaIcEEES6_St4lessIS6_ESaISt4pairIKS6_S6_EEE
librocksdb.so.5.4:_ZN7rocksdb14GetInfoLogListEPNS_2DBEPSt6vectorINSt7__cxx1112basic_stringIcSt11char_traitsIcESaIcEEESaIS8_EE
librocksdb.so.5.4:_ZN7rocksdb14GetVarint64PtrEPKcS1_Pm
librocksdb.so.5.4:_ZN7rocksdb14IOStatsContext5ResetEv
librocksdb.so.5.4:_ZN7rocksdb14LRUHandleTable11FindPointerERKNS_5SliceEj
librocksdb.so.5.4:_ZN7rocksdb14LRUHandleTable6InsertEPNS_9LRUHandleE
librocksdb.so.5.4:_ZN7rocksdb14LRUHandleTable6LookupERKNS_5SliceEj
librocksdb.so.5.4:_ZN7rocksdb14LRUHandleTable6RemoveERKNS_5SliceEj
librocksdb.so.5.4:_ZN7rocksdb14LRUHandleTable6ResizeEv
librocksdb.so.5.4:_ZN7rocksdb14LRUHandleTableC1Ev
librocksdb.so.5.4:_ZN7rocksdb14LRUHandleTableC2Ev
librocksdb.so.5.4:_ZN7rocksdb14LRUHandleTableD1Ev
librocksdb.so.5.4:_ZN7rocksdb14LRUHandleTableD2Ev
librocksdb.so.5.4:_ZN7rocksdb14LevelDBOptionsC1Ev
librocksdb.so.5.4:_ZN7rocksdb14LevelDBOptionsC2Ev
librocksdb.so.5.4:_ZN7rocksdb14MergeOperators17CreateMaxOperatorEv
librocksdb.so.5.4:_ZN7rocksdb14MergeOperators17CreatePutOperatorEv
librocksdb.so.5.4:_ZN7rocksdb14MergeOperators23CreateUInt64AddOperatorEv
librocksdb.so.5.4:_ZN7rocksdb14MergeOperators26CreateStringAppendOperatorEv
librocksdb.so.5.4:_ZN7rocksdb14MergeOperators27CreateDeprecatedPutOperatorEv
librocksdb.so.5.4:_ZN7rocksdb14MergeOperators30CreateStringAppendTESTOperatorEv
librocksdb.so.5.4:_ZN7rocksdb14NumberToStringB5cxx11Em
librocksdb.so.5.4:_ZN7rocksdb14ParseVectorIntERKNSt7__cxx1112basic_stringIcSt11char_traitsIcESaIcEEE
librocksdb.so.5.4:_ZN7rocksdb14PosixDirectory5FsyncEv
librocksdb.so.5.4:_ZN7rocksdb14PosixDirectoryD0Ev
librocksdb.so.5.4:_ZN7rocksdb14PosixDirectoryD1Ev
librocksdb.so.5.4:_ZN7rocksdb14PosixDirectoryD2Ev
librocksdb.so.5.4:_ZN7rocksdb14ReadPropertiesERKNS_5SliceEPNS_22RandomAccessFileReaderERKNS_6FooterERKNS_18ImmutableCFOptionsEPPNS_15TablePropertiesE
librocksdb.so.5.4:_ZN7rocksdb14RestoreCommand4HelpERNSt7__cxx1112basic_stringIcSt11char_traitsIcESaIcEEE
librocksdb.so.5.4:_ZN7rocksdb14RestoreCommand9DoCommandEv
librocksdb.so.5.4:_ZN7rocksdb14RestoreCommandC1ERKSt6vectorINSt7__cxx1112basic_stringIcSt11char_traitsIcESaIcEEESaIS7_EERKSt3mapIS7_S7_St4lessIS7_ESaISt4pairIKS7_S7_EEESB_
librocksdb.so.5.4:_ZN7rocksdb14RestoreCommandC2ERKSt6vectorINSt7__cxx1112basic_stringIcSt11char_traitsIcESaIcEEESaIS7_EERKSt3mapIS7_S7_St4lessIS7_ESaISt4pairIKS7_S7_EEESB_
librocksdb.so.5.4:_ZN7rocksdb14SequentialFileD0Ev
librocksdb.so.5.4:_ZN7rocksdb14SequentialFileD1Ev
librocksdb.so.5.4:_ZN7rocksdb14SequentialFileD2Ev
librocksdb.so.5.4:_ZN7rocksdb14SetCurrentFileEPNS_3EnvERKNSt7__cxx1112basic_stringIcSt11char_traitsIcESaIcEEEmPNS_9DirectoryE
librocksdb.so.5.4:_ZN7rocksdb14StatisticsImpl10recordTickEjm
librocksdb.so.5.4:_ZN7rocksdb14StatisticsImpl11measureTimeEjm
librocksdb.so.5.4:_ZN7rocksdb14StatisticsImpl14setTickerCountEjm
librocksdb.so.5.4:_ZN7rocksdb14StatisticsImpl19getThreadTickerInfoEj
librocksdb.so.5.4:_ZN7rocksdb14StatisticsImpl22getAndResetTickerCountEj
librocksdb.so.5.4:_ZN7rocksdb14StatisticsImpl22getThreadHistogramInfoEj
librocksdb.so.5.4:_ZN7rocksdb14StatisticsImplC1ESt10shared_ptrINS_10StatisticsEEb
librocksdb.so.5.4:_ZN7rocksdb14StatisticsImplC2ESt10shared_ptrINS_10StatisticsEEb
librocksdb.so.5.4:_ZN7rocksdb14StatisticsImplD0Ev
librocksdb.so.5.4:_ZN7rocksdb14StatisticsImplD1Ev
librocksdb.so.5.4:_ZN7rocksdb14StatisticsImplD2Ev
librocksdb.so.5.4:_ZN7rocksdb14StopWriteTokenD0Ev
librocksdb.so.5.4:_ZN7rocksdb14StopWriteTokenD1Ev
librocksdb.so.5.4:_ZN7rocksdb14StopWriteTokenD2Ev
librocksdb.so.5.4:_ZN7rocksdb14ThreadLocalPtr10StaticMeta10GetHandlerEj
librocksdb.so.5.4:_ZN7rocksdb14ThreadLocalPtr10StaticMeta10SetHandlerEjPFvPvE
librocksdb.so.5.4:_ZN7rocksdb14ThreadLocalPtr10StaticMeta12OnThreadExitEPv
librocksdb.so.5.4:_ZN7rocksdb14ThreadLocalPtr10StaticMeta13AddThreadDataEPNS_10ThreadDataE
librocksdb.so.5.4:_ZN7rocksdb14ThreadLocalPtr10StaticMeta14CompareAndSwapEjPvRS2_
librocksdb.so.5.4:_ZN7rocksdb14ThreadLocalPtr10StaticMeta14GetThreadLocalEv
librocksdb.so.5.4:_ZN7rocksdb14ThreadLocalPtr10StaticMeta16RemoveThreadDataEPNS_10ThreadDataE
librocksdb.so.5.4:_ZN7rocksdb14ThreadLocalPtr10StaticMeta4FoldEjSt8functionIFvPvS3_EES3_
librocksdb.so.5.4:_ZN7rocksdb14ThreadLocalPtr10StaticMeta4SwapEjPv
librocksdb.so.5.4:_ZN7rocksdb14ThreadLocalPtr10StaticMeta5GetIdEv
librocksdb.so.5.4:_ZN7rocksdb14ThreadLocalPtr10StaticMeta5MutexEv
librocksdb.so.5.4:_ZN7rocksdb14ThreadLocalPtr10StaticMeta5ResetEjPv
librocksdb.so.5.4:_ZN7rocksdb14ThreadLocalPtr10StaticMeta6ScrapeEjPNS_10autovectorIPvLm8EEES3_
librocksdb.so.5.4:_ZN7rocksdb14ThreadLocalPtr10StaticMeta9ReclaimIdEj
librocksdb.so.5.4:_ZN7rocksdb14ThreadLocalPtr10StaticMetaC1Ev
librocksdb.so.5.4:_ZN7rocksdb14ThreadLocalPtr10StaticMetaC2Ev
librocksdb.so.5.4:_ZN7rocksdb14ThreadLocalPtr11TEST_PeekIdEv
librocksdb.so.5.4:_ZN7rocksdb14ThreadLocalPtr14CompareAndSwapEPvRS1_
librocksdb.so.5.4:_ZN7rocksdb14ThreadLocalPtr14InitSingletonsEv
librocksdb.so.5.4:_ZN7rocksdb14ThreadLocalPtr4FoldESt8functionIFvPvS2_EES2_
librocksdb.so.5.4:_ZN7rocksdb14ThreadLocalPtr4SwapEPv
librocksdb.so.5.4:_ZN7rocksdb14ThreadLocalPtr5ResetEPv
librocksdb.so.5.4:_ZN7rocksdb14ThreadLocalPtr6ScrapeEPNS_10autovectorIPvLm8EEES2_
librocksdb.so.5.4:_ZN7rocksdb14ThreadLocalPtr8InstanceEv
librocksdb.so.5.4:_ZN7rocksdb14ThreadLocalPtrC1EPFvPvE
librocksdb.so.5.4:_ZN7rocksdb14ThreadLocalPtrC2EPFvPvE
librocksdb.so.5.4:_ZN7rocksdb14ThreadLocalPtrD1Ev
librocksdb.so.5.4:_ZN7rocksdb14ThreadLocalPtrD2Ev
librocksdb.so.5.4:_ZN7rocksdb14ThreadPoolImpl10SetHostEnvEPNS_3EnvE
librocksdb.so.5.4:_ZN7rocksdb14ThreadPoolImpl10UnScheduleEPv
librocksdb.so.5.4:_ZN7rocksdb14ThreadPoolImpl11PthreadCallEPKci
librocksdb.so.5.4:_ZN7rocksdb14ThreadPoolImpl14JoinAllThreadsEv
librocksdb.so.5.4:_ZN7rocksdb14ThreadPoolImpl15LowerIOPriorityEv
librocksdb.so.5.4:_ZN7rocksdb14ThreadPoolImpl17SetThreadPriorityENS_3Env8PriorityE
librocksdb.so.5.4:_ZN7rocksdb14ThreadPoolImpl20SetBackgroundThreadsEi
librocksdb.so.5.4:_ZN7rocksdb14ThreadPoolImpl28IncBackgroundThreadsIfNeededEi
librocksdb.so.5.4:_ZN7rocksdb14ThreadPoolImpl28WaitForJobsAndJoinAllThreadsEv
librocksdb.so.5.4:_ZN7rocksdb14ThreadPoolImpl4Impl10UnScheduleEPv
librocksdb.so.5.4:_ZN7rocksdb14ThreadPoolImpl4Impl11JoinThreadsEb
librocksdb.so.5.4:_ZN7rocksdb14ThreadPoolImpl4Impl14StartBGThreadsEv
librocksdb.so.5.4:_ZN7rocksdb14ThreadPoolImpl4Impl15BGThreadWrapperEPv
librocksdb.so.5.4:_ZN7rocksdb14ThreadPoolImpl4Impl28SetBackgroundThreadsInternalEib
librocksdb.so.5.4:_ZN7rocksdb14ThreadPoolImpl4Impl6SubmitEOSt8functionIFvvEES5_Pv
librocksdb.so.5.4:_ZN7rocksdb14ThreadPoolImpl4Impl8BGThreadEm
librocksdb.so.5.4:_ZN7rocksdb14ThreadPoolImpl8ScheduleEPFvPvES1_S1_S3_
librocksdb.so.5.4:_ZN7rocksdb14ThreadPoolImpl9SubmitJobEOSt8functionIFvvEE
librocksdb.so.5.4:_ZN7rocksdb14ThreadPoolImpl9SubmitJobERKSt8functionIFvvEE
librocksdb.so.5.4:_ZN7rocksdb14ThreadPoolImplC1Ev
librocksdb.so.5.4:_ZN7rocksdb14ThreadPoolImplC2Ev
librocksdb.so.5.4:_ZN7rocksdb14ThreadPoolImplD0Ev
librocksdb.so.5.4:_ZN7rocksdb14ThreadPoolImplD1Ev
librocksdb.so.5.4:_ZN7rocksdb14ThreadPoolImplD2Ev
librocksdb.so.5.4:_ZN7rocksdb14ThreadedWriter10DispatchIOERKNS0_2IOE
librocksdb.so.5.4:_ZN7rocksdb14ThreadedWriter10ThreadMainEv
librocksdb.so.5.4:_ZN7rocksdb14ThreadedWriter4StopEv
librocksdb.so.5.4:_ZN7rocksdb14ThreadedWriter5WriteEPNS_12WritableFileEPNS_16CacheWriteBufferEmSt8functionIFvvEE
librocksdb.so.5.4:_ZN7rocksdb14ThreadedWriterC1EPNS_19PersistentCacheTierEmm
librocksdb.so.5.4:_ZN7rocksdb14ThreadedWriterC2EPNS_19PersistentCacheTierEmm
librocksdb.so.5.4:_ZN7rocksdb14VersionBuilder12MaybeAddFileEPNS_18VersionStorageInfoEiPNS_12FileMetaDataE
librocksdb.so.5.4:_ZN7rocksdb14VersionBuilder16CheckConsistencyEPNS_18VersionStorageInfoE
librocksdb.so.5.4:_ZN7rocksdb14VersionBuilder17LoadTableHandlersEPNS_13InternalStatsEib
librocksdb.so.5.4:_ZN7rocksdb14VersionBuilder26CheckConsistencyForDeletesEPNS_11VersionEditEmi
librocksdb.so.5.4:_ZN7rocksdb14VersionBuilder5ApplyEPNS_11VersionEditE
librocksdb.so.5.4:_ZN7rocksdb14VersionBuilder6SaveToEPNS_18VersionStorageInfoE
librocksdb.so.5.4:_ZN7rocksdb14VersionBuilderC1ERKNS_10EnvOptionsEPNS_10TableCacheEPNS_18VersionStorageInfoEPNS_6LoggerE
librocksdb.so.5.4:_ZN7rocksdb14VersionBuilderC2ERKNS_10EnvOptionsEPNS_10TableCacheEPNS_18VersionStorageInfoEPNS_6LoggerE
librocksdb.so.5.4:_ZN7rocksdb14VersionBuilderD1Ev
librocksdb.so.5.4:_ZN7rocksdb14VersionBuilderD2Ev
librocksdb.so.5.4:_ZN7rocksdb14WriteBatchBase11DeleteRangeEPNS_18ColumnFamilyHandleERKNS_10SlicePartsES5_
librocksdb.so.5.4:_ZN7rocksdb14WriteBatchBase11DeleteRangeERKNS_10SlicePartsES3_
librocksdb.so.5.4:_ZN7rocksdb14WriteBatchBase12SingleDeleteEPNS_18ColumnFamilyHandleERKNS_10SlicePartsE
librocksdb.so.5.4:_ZN7rocksdb14WriteBatchBase12SingleDeleteERKNS_10SlicePartsE
librocksdb.so.5.4:_ZN7rocksdb14WriteBatchBase3PutEPNS_18ColumnFamilyHandleERKNS_10SlicePartsES5_
librocksdb.so.5.4:_ZN7rocksdb14WriteBatchBase3PutERKNS_10SlicePartsES3_
librocksdb.so.5.4:_ZN7rocksdb14WriteBatchBase5MergeEPNS_18ColumnFamilyHandleERKNS_10SlicePartsES5_
librocksdb.so.5.4:_ZN7rocksdb14WriteBatchBase5MergeERKNS_10SlicePartsES3_
librocksdb.so.5.4:_ZN7rocksdb14WriteBatchBase6DeleteEPNS_18ColumnFamilyHandleERKNS_10SlicePartsE
librocksdb.so.5.4:_ZN7rocksdb14WriteBatchBase6DeleteERKNS_10SlicePartsE
librocksdb.so.5.4:_ZN7rocksdb15BatchPutCommand23PrepareOptionsForOpenDBEv
librocksdb.so.5.4:_ZN7rocksdb15BatchPutCommand4HelpERNSt7__cxx1112basic_stringIcSt11char_traitsIcESaIcEEE
librocksdb.so.5.4:_ZN7rocksdb15BatchPutCommand9DoCommandEv
librocksdb.so.5.4:_ZN7rocksdb15BatchPutCommandC1ERKSt6vectorINSt7__cxx1112basic_stringIcSt11char_traitsIcESaIcEEESaIS7_EERKSt3mapIS7_S7_St4lessIS7_ESaISt4pairIKS7_S7_EEESB_
librocksdb.so.5.4:_ZN7rocksdb15BatchPutCommandC2ERKSt6vectorINSt7__cxx1112basic_stringIcSt11char_traitsIcESaIcEEESaIS7_EERKSt3mapIS7_S7_St4lessIS7_ESaISt4pairIKS7_S7_EEESB_
librocksdb.so.5.4:_ZN7rocksdb15BlockBasedTable11GetCacheKeyEPKcmRKNS_11BlockHandleEPc
librocksdb.so.5.4:_ZN7rocksdb15BlockBasedTable11NewIteratorERKNS_11ReadOptionsEPNS_5ArenaEPKNS_21InternalKeyComparatorEb
librocksdb.so.5.4:_ZN7rocksdb15BlockBasedTable12DumpKeyValueERKNS_5SliceES3_PNS_12WritableFileE
librocksdb.so.5.4:_ZN7rocksdb15BlockBasedTable13ReadMetaBlockEPNS0_3RepEPSt10unique_ptrINS_5BlockESt14default_deleteIS4_EEPS3_INS_16InternalIteratorES5_IS9_EE
librocksdb.so.5.4:_ZN7rocksdb15BlockBasedTable14DumpDataBlocksEPNS_12WritableFileE
librocksdb.so.5.4:_ZN7rocksdb15BlockBasedTable14DumpIndexBlockEPNS_12WritableFileE
librocksdb.so.5.4:_ZN7rocksdb15BlockBasedTable14PrefixMayMatchERKNS_5SliceE
librocksdb.so.5.4:_ZN7rocksdb15BlockBasedTable15TEST_KeyInCacheERKNS_11ReadOptionsERKNS_5SliceE
librocksdb.so.5.4:_ZN7rocksdb15BlockBasedTable16NewIndexIteratorERKNS_11ReadOptionsEPNS_9BlockIterEPNS0_13CachableEntryINS0_11IndexReaderEEE
librocksdb.so.5.4:_ZN7rocksdb15BlockBasedTable17CreateIndexReaderEPPNS0_11IndexReaderEPNS_16InternalIteratorEi
librocksdb.so.5.4:_ZN7rocksdb15BlockBasedTable18SetupForCompactionEv
librocksdb.so.5.4:_ZN7rocksdb15BlockBasedTable19ApproximateOffsetOfERKNS_5SliceE
librocksdb.so.5.4:_ZN7rocksdb15BlockBasedTable19GenerateCachePrefixEPNS_5CacheEPNS_12WritableFileEPcPm
librocksdb.so.5.4:_ZN7rocksdb15BlockBasedTable19GenerateCachePrefixEPNS_5CacheEPNS_16RandomAccessFileEPcPm
librocksdb.so.5.4:_ZN7rocksdb15BlockBasedTable19PutDataBlockToCacheERKNS_5SliceES3_PNS_5CacheES5_RKNS_11ReadOptionsERKNS_18ImmutableCFOptionsEPNS0_13CachableEntryINS_5BlockEEEPSD_jS3_mbNS4_8PriorityE
librocksdb.so.5.4:_ZN7rocksdb15BlockBasedTable19SetupCacheKeyPrefixEPNS0_3RepEm
librocksdb.so.5.4:_ZN7rocksdb15BlockBasedTable20NewDataBlockIteratorEPNS0_3RepERKNS_11ReadOptionsERKNS_11BlockHandleEPNS_9BlockIterEbNS_6StatusE
librocksdb.so.5.4:_ZN7rocksdb15BlockBasedTable20NewDataBlockIteratorEPNS0_3RepERKNS_11ReadOptionsERKNS_5SliceEPNS_9BlockIterEb
librocksdb.so.5.4:_ZN7rocksdb15BlockBasedTable21GetDataBlockFromCacheERKNS_5SliceES3_PNS_5CacheES5_RKNS_18ImmutableCFOptionsERKNS_11ReadOptionsEPNS0_13CachableEntryINS_5BlockEEEjS3_mb
librocksdb.so.5.4:_ZN7rocksdb15BlockBasedTable23BlockEntryIteratorState14PrefixMayMatchERKNS_5SliceE
librocksdb.so.5.4:_ZN7rocksdb15BlockBasedTable23BlockEntryIteratorState20KeyReachedUpperBoundERKNS_5SliceE
librocksdb.so.5.4:_ZN7rocksdb15BlockBasedTable23BlockEntryIteratorState20NewSecondaryIteratorERKNS_5SliceE
librocksdb.so.5.4:_ZN7rocksdb15BlockBasedTable23BlockEntryIteratorStateC1EPS0_RKNS_11ReadOptionsEPKNS_21InternalKeyComparatorEbbPNS_9CleanableE
librocksdb.so.5.4:_ZN7rocksdb15BlockBasedTable23BlockEntryIteratorStateC2EPS0_RKNS_11ReadOptionsEPKNS_21InternalKeyComparatorEbbPNS_9CleanableE
librocksdb.so.5.4:_ZN7rocksdb15BlockBasedTable24GetKVPairsFromDataBlocksEPSt6vectorIS1_ISt4pairINSt7__cxx1112basic_stringIcSt11char_traitsIcESaIcEEES8_ESaIS9_EESaISB_EE
librocksdb.so.5.4:_ZN7rocksdb15BlockBasedTable25MaybeLoadDataBlockToCacheEPNS0_3RepERKNS_11ReadOptionsERKNS_11BlockHandleENS_5SliceEPNS0_13CachableEntryINS_5BlockEEEb
librocksdb.so.5.4:_ZN7rocksdb15BlockBasedTable25NewRangeTombstoneIteratorERKNS_11ReadOptionsE
librocksdb.so.5.4:_ZN7rocksdb15BlockBasedTable3GetERKNS_11ReadOptionsERKNS_5SliceEPNS_10GetContextEb
librocksdb.so.5.4:_ZN7rocksdb15BlockBasedTable4OpenERKNS_18ImmutableCFOptionsERKNS_10EnvOptionsERKNS_22BlockBasedTableOptionsERKNS_21InternalKeyComparatorEOSt10unique_ptrINS_22RandomAccessFileReaderESt14default_deleteISE_EEmPSD_INS_11TableReaderESF_ISJ_EEbbi
librocksdb.so.5.4:_ZN7rocksdb15BlockBasedTable5CloseEv
librocksdb.so.5.4:_ZN7rocksdb15BlockBasedTable8PrefetchEPKNS_5SliceES3_
librocksdb.so.5.4:_ZN7rocksdb15BlockBasedTable9DumpTableEPNS_12WritableFileE
librocksdb.so.5.4:_ZN7rocksdb15BlockBasedTableD0Ev
librocksdb.so.5.4:_ZN7rocksdb15BlockBasedTableD1Ev
librocksdb.so.5.4:_ZN7rocksdb15BlockBasedTableD2Ev
librocksdb.so.5.4:_ZN7rocksdb15ColumnFamilySet18CreateColumnFamilyERKNSt7__cxx1112basic_stringIcSt11char_traitsIcESaIcEEEjPNS_7VersionERKNS_19ColumnFamilyOptionsE
librocksdb.so.5.4:_ZN7rocksdb15ColumnFamilySet18GetMaxColumnFamilyEv
librocksdb.so.5.4:_ZN7rocksdb15ColumnFamilySet18RemoveColumnFamilyEPNS_16ColumnFamilyDataE
librocksdb.so.5.4:_ZN7rocksdb15ColumnFamilySet21GetNextColumnFamilyIDEv
librocksdb.so.5.4:_ZN7rocksdb15ColumnFamilySet21UpdateMaxColumnFamilyEj
librocksdb.so.5.4:_ZN7rocksdb15ColumnFamilySet22FreeDeadColumnFamiliesEv
librocksdb.so.5.4:_ZN7rocksdb15ColumnFamilySetC1ERKNSt7__cxx1112basic_stringIcSt11char_traitsIcESaIcEEEPKNS_18ImmutableDBOptionsERKNS_10EnvOptionsEPNS_5CacheEPNS_18WriteBufferManagerEPNS_15WriteControllerE
librocksdb.so.5.4:_ZN7rocksdb15ColumnFamilySetC2ERKNSt7__cxx1112basic_stringIcSt11char_traitsIcESaIcEEEPKNS_18ImmutableDBOptionsERKNS_10EnvOptionsEPNS_5CacheEPNS_18WriteBufferManagerEPNS_15WriteControllerE
librocksdb.so.5.4:_ZN7rocksdb15ColumnFamilySetD1Ev
librocksdb.so.5.4:_ZN7rocksdb15ColumnFamilySetD2Ev
librocksdb.so.5.4:_ZN7rocksdb15CompactedDBImpl3GetERKNS_11ReadOptionsEPNS_18ColumnFamilyHandleERKNS_5SliceEPNS_13PinnableSliceE
librocksdb.so.5.4:_ZN7rocksdb15CompactedDBImpl4InitERKNS_7OptionsE
librocksdb.so.5.4:_ZN7rocksdb15CompactedDBImpl4OpenERKNS_7OptionsERKNSt7__cxx1112basic_stringIcSt11char_traitsIcESaIcEEEPPNS_2DBE
librocksdb.so.5.4:_ZN7rocksdb15CompactedDBImpl8MultiGetERKNS_11ReadOptionsERKSt6vectorIPNS_18ColumnFamilyHandleESaIS6_EERKS4_INS_5SliceESaISB_EEPS4_INSt7__cxx1112basic_stringIcSt11char_traitsIcESaIcEEESaISL_EE
librocksdb.so.5.4:_ZN7rocksdb15CompactedDBImplC1ERKNS_9DBOptionsERKNSt7__cxx1112basic_stringIcSt11char_traitsIcESaIcEEE
librocksdb.so.5.4:_ZN7rocksdb15CompactedDBImplC2ERKNS_9DBOptionsERKNSt7__cxx1112basic_stringIcSt11char_traitsIcESaIcEEE
librocksdb.so.5.4:_ZN7rocksdb15CompactedDBImplD0Ev
librocksdb.so.5.4:_ZN7rocksdb15CompactedDBImplD1Ev
librocksdb.so.5.4:_ZN7rocksdb15CompactedDBImplD2Ev
librocksdb.so.5.4:_ZN7rocksdb15ConcurrentArena6RepickEv
librocksdb.so.5.4:_ZN7rocksdb15ConcurrentArenaC1Emm
librocksdb.so.5.4:_ZN7rocksdb15ConcurrentArenaC2Emm
librocksdb.so.5.4:_ZN7rocksdb15CurrentFileNameERKNSt7__cxx1112basic_stringIcSt11char_traitsIcESaIcEEE
librocksdb.so.5.4:_ZN7rocksdb15DBDumperCommand13DoDumpCommandEv
librocksdb.so.5.4:_ZN7rocksdb15DBDumperCommand4HelpERNSt7__cxx1112basic_stringIcSt11char_traitsIcESaIcEEE
librocksdb.so.5.4:_ZN7rocksdb15DBDumperCommand9DoCommandEv
librocksdb.so.5.4:_ZN7rocksdb15DBDumperCommandC1ERKSt6vectorINSt7__cxx1112basic_stringIcSt11char_traitsIcESaIcEEESaIS7_EERKSt3mapIS7_S7_St4lessIS7_ESaISt4pairIKS7_S7_EEESB_
librocksdb.so.5.4:_ZN7rocksdb15DBDumperCommandC2ERKSt6vectorINSt7__cxx1112basic_stringIcSt11char_traitsIcESaIcEEESaIS7_EERKSt3mapIS7_S7_St4lessIS7_ESaISt4pairIKS7_S7_EEESB_
librocksdb.so.5.4:_ZN7rocksdb15DBLoaderCommand23PrepareOptionsForOpenDBEv
librocksdb.so.5.4:_ZN7rocksdb15DBLoaderCommand4HelpERNSt7__cxx1112basic_stringIcSt11char_traitsIcESaIcEEE
librocksdb.so.5.4:_ZN7rocksdb15DBLoaderCommand9DoCommandEv
librocksdb.so.5.4:_ZN7rocksdb15DBLoaderCommandC1ERKSt6vectorINSt7__cxx1112basic_stringIcSt11char_traitsIcESaIcEEESaIS7_EERKSt3mapIS7_S7_St4lessIS7_ESaISt4pairIKS7_S7_EEESB_
librocksdb.so.5.4:_ZN7rocksdb15DBLoaderCommandC2ERKSt6vectorINSt7__cxx1112basic_stringIcSt11char_traitsIcESaIcEEESaIS7_EERKSt3mapIS7_S7_St4lessIS7_ESaISt4pairIKS7_S7_EEESB_
librocksdb.so.5.4:_ZN7rocksdb15DelayWriteTokenD0Ev
librocksdb.so.5.4:_ZN7rocksdb15DelayWriteTokenD1Ev
librocksdb.so.5.4:_ZN7rocksdb15DelayWriteTokenD2Ev
librocksdb.so.5.4:_ZN7rocksdb15DeleteScheduler10DeleteFileERKNSt7__cxx1112basic_stringIcSt11char_traitsIcESaIcEEE
librocksdb.so.5.4:_ZN7rocksdb15DeleteScheduler11MoveToTrashERKNSt7__cxx1112basic_stringIcSt11char_traitsIcESaIcEEEPS6_
librocksdb.so.5.4:_ZN7rocksdb15DeleteScheduler15DeleteTrashFileERKNSt7__cxx1112basic_stringIcSt11char_traitsIcESaIcEEEPm
librocksdb.so.5.4:_ZN7rocksdb15DeleteScheduler17WaitForEmptyTrashEv
librocksdb.so.5.4:_ZN7rocksdb15DeleteScheduler19GetBackgroundErrorsB5cxx11Ev
librocksdb.so.5.4:_ZN7rocksdb15DeleteScheduler20BackgroundEmptyTrashEv
librocksdb.so.5.4:_ZN7rocksdb15DeleteSchedulerC1EPNS_3EnvERKNSt7__cxx1112basic_stringIcSt11char_traitsIcESaIcEEElPNS_6LoggerEPNS_18SstFileManagerImplE
librocksdb.so.5.4:_ZN7rocksdb15DeleteSchedulerC2EPNS_3EnvERKNSt7__cxx1112basic_stringIcSt11char_traitsIcESaIcEEElPNS_6LoggerEPNS_18SstFileManagerImplE
librocksdb.so.5.4:_ZN7rocksdb15DeleteSchedulerD1Ev
librocksdb.so.5.4:_ZN7rocksdb15DeleteSchedulerD2Ev
librocksdb.so.5.4:_ZN7rocksdb15ForwardIterator11GetPropertyENSt7__cxx1112basic_stringIcSt11char_traitsIcESaIcEEEPS6_
librocksdb.so.5.4:_ZN7rocksdb15ForwardIterator11SeekToFirstEv
librocksdb.so.5.4:_ZN7rocksdb15ForwardIterator12SeekInternalERKNS_5SliceEb
librocksdb.so.5.4:_ZN7rocksdb15ForwardIterator13UpdateCurrentEv
librocksdb.so.5.4:_ZN7rocksdb15ForwardIterator14DeleteIteratorEPNS_16InternalIteratorEb
librocksdb.so.5.4:_ZN7rocksdb15ForwardIterator14RenewIteratorsEv
librocksdb.so.5.4:_ZN7rocksdb15ForwardIterator15FindFileInRangeERKSt6vectorIPNS_12FileMetaDataESaIS3_EERKNS_5SliceEjj
librocksdb.so.5.4:_ZN7rocksdb15ForwardIterator16RebuildIteratorsEb
librocksdb.so.5.4:_ZN7rocksdb15ForwardIterator17DeleteCurrentIterEv
librocksdb.so.5.4:_ZN7rocksdb15ForwardIterator17SetPinnedItersMgrEPNS_22PinnedIteratorsManagerE
librocksdb.so.5.4:_ZN7rocksdb15ForwardIterator19BuildLevelIteratorsEPKNS_18VersionStorageInfoE
librocksdb.so.5.4:_ZN7rocksdb15ForwardIterator19NeedToSeekImmutableERKNS_5SliceE
librocksdb.so.5.4:_ZN7rocksdb15ForwardIterator22TEST_CheckDeletedItersEPiS1_
librocksdb.so.5.4:_ZN7rocksdb15ForwardIterator24ResetIncompleteIteratorsEv
librocksdb.so.5.4:_ZN7rocksdb15ForwardIterator28UpdateChildrenPinnedItersMgrEv
librocksdb.so.5.4:_ZN7rocksdb15ForwardIterator4NextEv
librocksdb.so.5.4:_ZN7rocksdb15ForwardIterator4SeekERKNS_5SliceE
librocksdb.so.5.4:_ZN7rocksdb15ForwardIterator7CleanupEb
librocksdb.so.5.4:_ZN7rocksdb15ForwardIterator9SVCleanupEv
librocksdb.so.5.4:_ZN7rocksdb15ForwardIteratorC1EPNS_6DBImplERKNS_11ReadOptionsEPNS_16ColumnFamilyDataEPNS_12SuperVersionE
librocksdb.so.5.4:_ZN7rocksdb15ForwardIteratorC2EPNS_6DBImplERKNS_11ReadOptionsEPNS_16ColumnFamilyDataEPNS_12SuperVersionE
librocksdb.so.5.4:_ZN7rocksdb15ForwardIteratorD0Ev
librocksdb.so.5.4:_ZN7rocksdb15ForwardIteratorD1Ev
librocksdb.so.5.4:_ZN7rocksdb15ForwardIteratorD2Ev
librocksdb.so.5.4:_ZN7rocksdb15GeoIteratorImpl10geo_objectEv
librocksdb.so.5.4:_ZN7rocksdb15GeoIteratorImpl4NextEv
librocksdb.so.5.4:_ZN7rocksdb15GetPropertyInfoERKNS_5SliceE
librocksdb.so.5.4:_ZN7rocksdb15InfoLogFileNameERKNSt7__cxx1112basic_stringIcSt11char_traitsIcESaIcEEES7_S7_
librocksdb.so.5.4:_ZN7rocksdb15ManagedIterator10SeekToLastEv
librocksdb.so.5.4:_ZN7rocksdb15ManagedIterator11ReleaseIterEb
librocksdb.so.5.4:_ZN7rocksdb15ManagedIterator11SeekForPrevERKNS_5SliceE
librocksdb.so.5.4:_ZN7rocksdb15ManagedIterator11SeekToFirstEv
librocksdb.so.5.4:_ZN7rocksdb15ManagedIterator12SeekInternalERKNS_5SliceEb
librocksdb.so.5.4:_ZN7rocksdb15ManagedIterator13NeedToRebuildEv
librocksdb.so.5.4:_ZN7rocksdb15ManagedIterator13UpdateCurrentEv
librocksdb.so.5.4:_ZN7rocksdb15ManagedIterator15RebuildIteratorEv
librocksdb.so.5.4:_ZN7rocksdb15ManagedIterator4LockEv
librocksdb.so.5.4:_ZN7rocksdb15ManagedIterator4NextEv
librocksdb.so.5.4:_ZN7rocksdb15ManagedIterator4PrevEv
librocksdb.so.5.4:_ZN7rocksdb15ManagedIterator4SeekERKNS_5SliceE
librocksdb.so.5.4:_ZN7rocksdb15ManagedIterator6UnLockEv
librocksdb.so.5.4:_ZN7rocksdb15ManagedIterator7TryLockEv
librocksdb.so.5.4:_ZN7rocksdb15ManagedIteratorC1EPNS_6DBImplERKNS_11ReadOptionsEPNS_16ColumnFamilyDataE
librocksdb.so.5.4:_ZN7rocksdb15ManagedIteratorC2EPNS_6DBImplERKNS_11ReadOptionsEPNS_16ColumnFamilyDataE
librocksdb.so.5.4:_ZN7rocksdb15ManagedIteratorD0Ev
librocksdb.so.5.4:_ZN7rocksdb15ManagedIteratorD1Ev
librocksdb.so.5.4:_ZN7rocksdb15ManagedIteratorD2Ev
librocksdb.so.5.4:_ZN7rocksdb15ManagedSnapshot8snapshotEv
librocksdb.so.5.4:_ZN7rocksdb15ManagedSnapshotC1EPNS_2DBE
librocksdb.so.5.4:_ZN7rocksdb15ManagedSnapshotC1EPNS_2DBEPKNS_8SnapshotE
librocksdb.so.5.4:_ZN7rocksdb15ManagedSnapshotC2EPNS_2DBE
librocksdb.so.5.4:_ZN7rocksdb15ManagedSnapshotC2EPNS_2DBEPKNS_8SnapshotE
librocksdb.so.5.4:_ZN7rocksdb15ManagedSnapshotD1Ev
librocksdb.so.5.4:_ZN7rocksdb15ManagedSnapshotD2Ev
librocksdb.so.5.4:_ZN7rocksdb15MemTableOptionsC1ERKNS_18ImmutableCFOptionsERKNS_16MutableCFOptionsE
librocksdb.so.5.4:_ZN7rocksdb15MemTableOptionsC2ERKNS_18ImmutableCFOptionsERKNS_16MutableCFOptionsE
librocksdb.so.5.4:_ZN7rocksdb15MergingIterator10ClearHeapsEv
librocksdb.so.5.4:_ZN7rocksdb15MergingIterator11InitMaxHeapEv
librocksdb.so.5.4:_ZN7rocksdb15NewTableBuilderERKNS_18ImmutableCFOptionsERKNS_21InternalKeyComparatorEPKSt6vectorISt10unique_ptrINS_26IntTblPropCollectorFactoryESt14default_deleteIS8_EESaISB_EEjRKNSt7__cxx1112basic_stringIcSt11char_traitsIcESaIcEEEPNS_18WritableFileWriterENS_15CompressionTypeERKNS_18CompressionOptionsEiPSM_b
librocksdb.so.5.4:_ZN7rocksdb15NewWritableFileEPNS_3EnvERKNSt7__cxx1112basic_stringIcSt11char_traitsIcESaIcEEEPSt10unique_ptrINS_12WritableFileESt14default_deleteISB_EERKNS_10EnvOptionsE
librocksdb.so.5.4:_ZN7rocksdb15OptionsFileNameERKNSt7__cxx1112basic_stringIcSt11char_traitsIcESaIcEEEm
librocksdb.so.5.4:_ZN7rocksdb15PlainTableIndex15InitFromRawDataENS_5SliceE
librocksdb.so.5.4:_ZN7rocksdb15SanitizeOptionsERKNS_18ImmutableDBOptionsERKNS_19ColumnFamilyOptionsE
librocksdb.so.5.4:_ZN7rocksdb15SanitizeOptionsERKNSt7__cxx1112basic_stringIcSt11char_traitsIcESaIcEEERKNS_7OptionsE
librocksdb.so.5.4:_ZN7rocksdb15SanitizeOptionsERKNSt7__cxx1112basic_stringIcSt11char_traitsIcESaIcEEERKNS_9DBOptionsE
librocksdb.so.5.4:_ZN7rocksdb15SetIdentityFileEPNS_3EnvERKNSt7__cxx1112basic_stringIcSt11char_traitsIcESaIcEEE
librocksdb.so.5.4:_ZN7rocksdb15SkipListFactory17CreateMemTableRepERKNS_11MemTableRep13KeyComparatorEPNS_17MemTableAllocatorEPKNS_14SliceTransformEPNS_6LoggerE
librocksdb.so.5.4:_ZN7rocksdb15TableProperties3AddERKS0_
librocksdb.so.5.4:_ZN7rocksdb15TransactionImpl10InitializeERKNS_18TransactionOptionsE
librocksdb.so.5.4:_ZN7rocksdb15TransactionImpl11CommitBatchEPNS_10WriteBatchE
librocksdb.so.5.4:_ZN7rocksdb15TransactionImpl12ReinitializeEPNS_13TransactionDBERKNS_12WriteOptionsERKNS_18TransactionOptionsE
librocksdb.so.5.4:_ZN7rocksdb15TransactionImpl16TryStealingLocksEv
librocksdb.so.5.4:_ZN7rocksdb15TransactionImpl16ValidateSnapshotEPNS_18ColumnFamilyHandleERKNS_5SliceEmPm
librocksdb.so.5.4:_ZN7rocksdb15TransactionImpl18UnlockGetForUpdateEPNS_18ColumnFamilyHandleERKNS_5SliceE
librocksdb.so.5.4:_ZN7rocksdb15TransactionImpl19RollbackToSavePointEv
librocksdb.so.5.4:_ZN7rocksdb15TransactionImpl5ClearEv
librocksdb.so.5.4:_ZN7rocksdb15TransactionImpl6CommitEv
librocksdb.so.5.4:_ZN7rocksdb15TransactionImpl7PrepareEv
librocksdb.so.5.4:_ZN7rocksdb15TransactionImpl7SetNameERKNSt7__cxx1112basic_stringIcSt11char_traitsIcESaIcEEE
librocksdb.so.5.4:_ZN7rocksdb15TransactionImpl7TryLockEPNS_18ColumnFamilyHandleERKNS_5SliceEbbb
librocksdb.so.5.4:_ZN7rocksdb15TransactionImpl8GenTxnIDEv
librocksdb.so.5.4:_ZN7rocksdb15TransactionImpl8RollbackEv
librocksdb.so.5.4:_ZN7rocksdb15TransactionImpl9LockBatchEPNS_10WriteBatchEPSt13unordered_mapIjS3_INSt7__cxx1112basic_stringIcSt11char_traitsIcESaIcEEENS_21TransactionKeyMapInfoESt4hashIS9_ESt8equal_toIS9_ESaISt4pairIKS9_SA_EEESB_IjESD_IjESaISF_IKjSJ_EEE
librocksdb.so.5.4:_ZN7rocksdb15TransactionImplC1EPNS_13TransactionDBERKNS_12WriteOptionsERKNS_18TransactionOptionsE
librocksdb.so.5.4:_ZN7rocksdb15TransactionImplC2EPNS_13TransactionDBERKNS_12WriteOptionsERKNS_18TransactionOptionsE
librocksdb.so.5.4:_ZN7rocksdb15TransactionImplD0Ev
librocksdb.so.5.4:_ZN7rocksdb15TransactionImplD1Ev
librocksdb.so.5.4:_ZN7rocksdb15TransactionImplD2Ev
librocksdb.so.5.4:_ZN7rocksdb15TransactionUtil20CheckKeyForConflictsEPNS_6DBImplEPNS_18ColumnFamilyHandleERKNSt7__cxx1112basic_stringIcSt11char_traitsIcESaIcEEEmb
librocksdb.so.5.4:_ZN7rocksdb15TransactionUtil21CheckKeysForConflictsEPNS_6DBImplERKSt13unordered_mapIjS3_INSt7__cxx1112basic_stringIcSt11char_traitsIcESaIcEEENS_21TransactionKeyMapInfoESt4hashIS9_ESt8equal_toIS9_ESaISt4pairIKS9_SA_EEESB_IjESD_IjESaISF_IKjSJ_EEEb
librocksdb.so.5.4:_ZN7rocksdb15TransactionUtil8CheckKeyEPNS_6DBImplEPNS_12SuperVersionEmmRKNSt7__cxx1112basic_stringIcSt11char_traitsIcESaIcEEEb
librocksdb.so.5.4:_ZN7rocksdb15WriteController12GetStopTokenEv
librocksdb.so.5.4:_ZN7rocksdb15WriteController13GetDelayTokenEm
librocksdb.so.5.4:_ZN7rocksdb15WriteController18NowMicrosMonotonicEPNS_3EnvE
librocksdb.so.5.4:_ZN7rocksdb15WriteController26GetCompactionPressureTokenEv
librocksdb.so.5.4:_ZN7rocksdb15WriteController8GetDelayEPNS_3EnvEm
librocksdb.so.5.4:_ZN7rocksdb16AppendHumanBytesEmPci
librocksdb.so.5.4:_ZN7rocksdb16BackupEngineImpl10BackupMeta11StoreToFileEb
librocksdb.so.5.4:_ZN7rocksdb16BackupEngineImpl10BackupMeta12LoadFromFileERKNSt7__cxx1112basic_stringIcSt11char_traitsIcESaIcEEERKSt13unordered_mapIS7_mSt4hashIS7_ESt8equal_toIS7_ESaISt4pairIS8_mEEE
librocksdb.so.5.4:_ZN7rocksdb16BackupEngineImpl10BackupMeta6DeleteEb
librocksdb.so.5.4:_ZN7rocksdb16BackupEngineImpl10BackupMeta7AddFileESt10shared_ptrINS0_8FileInfoEE
librocksdb.so.5.4:_ZN7rocksdb16BackupEngineImpl10InitializeEv
librocksdb.so.5.4:_ZN7rocksdb16BackupEngineImpl12DeleteBackupEj
librocksdb.so.5.4:_ZN7rocksdb16BackupEngineImpl12VerifyBackupEj
librocksdb.so.5.4:_ZN7rocksdb16BackupEngineImpl13GetBackupInfoEPSt6vectorINS_10BackupInfoESaIS2_EE
librocksdb.so.5.4:_ZN7rocksdb16BackupEngineImpl14DeleteChildrenERKNSt7__cxx1112basic_stringIcSt11char_traitsIcESaIcEEEj
librocksdb.so.5.4:_ZN7rocksdb16BackupEngineImpl14GarbageCollectEv
librocksdb.so.5.4:_ZN7rocksdb16BackupEngineImpl15PurgeOldBackupsEj
librocksdb.so.5.4:_ZN7rocksdb16BackupEngineImpl16CopyOrCreateFileERKNSt7__cxx1112basic_stringIcSt11char_traitsIcESaIcEEES8_S8_PNS_3EnvESA_bPNS_11RateLimiterEPmPjmSt8functionIFvvEE
librocksdb.so.5.4:_ZN7rocksdb16BackupEngineImpl17CalculateChecksumERKNSt7__cxx1112basic_stringIcSt11char_traitsIcESaIcEEEPNS_3EnvEmPj
librocksdb.so.5.4:_ZN7rocksdb16BackupEngineImpl19GetCorruptedBackupsEPSt6vectorIjSaIjEE
librocksdb.so.5.4:_ZN7rocksdb16BackupEngineImpl19RestoreDBFromBackupEjRKNSt7__cxx1112basic_stringIcSt11char_traitsIcESaIcEEES8_RKNS_14RestoreOptionsE
librocksdb.so.5.4:_ZN7rocksdb16BackupEngineImpl21AddBackupFileWorkItemERSt13unordered_setINSt7__cxx1112basic_stringIcSt11char_traitsIcESaIcEEESt4hashIS7_ESt8equal_toIS7_ESaIS7_EERSt6vectorINS0_31BackupAfterCopyOrCreateWorkItemESaISG_EEjbRKS7_SL_PNS_11RateLimiterEmmbSt8functionIFvvEESL_
librocksdb.so.5.4:_ZN7rocksdb16BackupEngineImpl25InsertPathnameToSizeBytesERKNSt7__cxx1112basic_stringIcSt11char_traitsIcESaIcEEEPNS_3EnvEPSt13unordered_mapIS6_mSt4hashIS6_ESt8equal_toIS6_ESaISt4pairIS7_mEEE
librocksdb.so.5.4:_ZN7rocksdb16BackupEngineImpl27CreateNewBackupWithMetadataEPNS_2DBERKNSt7__cxx1112basic_stringIcSt11char_traitsIcESaIcEEEbSt8functionIFvvEE
librocksdb.so.5.4:_ZN7rocksdb16BackupEngineImplC1EPNS_3EnvERKNS_19BackupableDBOptionsEb
librocksdb.so.5.4:_ZN7rocksdb16BackupEngineImplC2EPNS_3EnvERKNS_19BackupableDBOptionsEb
librocksdb.so.5.4:_ZN7rocksdb16BackupEngineImplD0Ev
librocksdb.so.5.4:_ZN7rocksdb16BackupEngineImplD1Ev
librocksdb.so.5.4:_ZN7rocksdb16BackupEngineImplD2Ev
librocksdb.so.5.4:_ZN7rocksdb16BackupStatistics25IncrementNumberFailBackupEv
librocksdb.so.5.4:_ZN7rocksdb16BackupStatistics28IncrementNumberSuccessBackupEv
librocksdb.so.5.4:_ZN7rocksdb16BlockPrefixIndex6CreateEPKNS_14SliceTransformERKNS_5SliceES6_PPS0_
librocksdb.so.5.4:_ZN7rocksdb16BlockPrefixIndex9GetBlocksERKNS_5SliceEPPj
librocksdb.so.5.4:_ZN7rocksdb16ColumnFamilyData10SetCurrentEPNS_7VersionE
librocksdb.so.5.4:_ZN7rocksdb16ColumnFamilyData10SetDroppedEv
librocksdb.so.5.4:_ZN7rocksdb16ColumnFamilyData10SetOptionsERKSt13unordered_mapINSt7__cxx1112basic_stringIcSt11char_traitsIcESaIcEEES7_St4hashIS7_ESt8equal_toIS7_ESaISt4pairIKS7_S7_EEE
librocksdb.so.5.4:_ZN7rocksdb16ColumnFamilyData12CompactRangeERKNS_16MutableCFOptionsEiijPKNS_11InternalKeyES6_PPS4_Pb
librocksdb.so.5.4:_ZN7rocksdb16ColumnFamilyData14PickCompactionERKNS_16MutableCFOptionsEPNS_9LogBufferE
librocksdb.so.5.4:_ZN7rocksdb16ColumnFamilyData15OldestLogToKeepEv
librocksdb.so.5.4:_ZN7rocksdb16ColumnFamilyData17CreateNewMemtableERKNS_16MutableCFOptionsEm
librocksdb.so.5.4:_ZN7rocksdb16ColumnFamilyData19InstallSuperVersionEPNS_12SuperVersionEPNS_17InstrumentedMutexE
librocksdb.so.5.4:_ZN7rocksdb16ColumnFamilyData19InstallSuperVersionEPNS_12SuperVersionEPNS_17InstrumentedMutexERKNS_16MutableCFOptionsE
librocksdb.so.5.4:_ZN7rocksdb16ColumnFamilyData20ConstructNewMemtableERKNS_16MutableCFOptionsEm
librocksdb.so.5.4:_ZN7rocksdb16ColumnFamilyData25GetReferencedSuperVersionEPNS_17InstrumentedMutexE
librocksdb.so.5.4:_ZN7rocksdb16ColumnFamilyData26GetThreadLocalSuperVersionEPNS_17InstrumentedMutexE
librocksdb.so.5.4:_ZN7rocksdb16ColumnFamilyData29ResetThreadLocalSuperVersionsEv
librocksdb.so.5.4:_ZN7rocksdb16ColumnFamilyData29ReturnThreadLocalSuperVersionEPNS_12SuperVersionE
librocksdb.so.5.4:_ZN7rocksdb16ColumnFamilyData31RecalculateWriteStallConditionsERKNS_16MutableCFOptionsE
librocksdb.so.5.4:_ZN7rocksdb16ColumnFamilyDataC1EjRKNSt7__cxx1112basic_stringIcSt11char_traitsIcESaIcEEEPNS_7VersionEPNS_5CacheEPNS_18WriteBufferManagerERKNS_19ColumnFamilyOptionsERKNS_18ImmutableDBOptionsERKNS_10EnvOptionsEPNS_15ColumnFamilySetE
librocksdb.so.5.4:_ZN7rocksdb16ColumnFamilyDataC2EjRKNSt7__cxx1112basic_stringIcSt11char_traitsIcESaIcEEEPNS_7VersionEPNS_5CacheEPNS_18WriteBufferManagerERKNS_19ColumnFamilyOptionsERKNS_18ImmutableDBOptionsERKNS_10EnvOptionsEPNS_15ColumnFamilySetE
librocksdb.so.5.4:_ZN7rocksdb16ColumnFamilyDataD1Ev
librocksdb.so.5.4:_ZN7rocksdb16ColumnFamilyDataD2Ev
librocksdb.so.5.4:_ZN7rocksdb16CompactionPicker12CompactFilesERKNS_17CompactionOptionsERKSt6vectorINS_20CompactionInputFilesESaIS5_EEiPNS_18VersionStorageInfoERKNS_16MutableCFOptionsEj
librocksdb.so.5.4:_ZN7rocksdb16CompactionPicker12CompactRangeERKNSt7__cxx1112basic_stringIcSt11char_traitsIcESaIcEEERKNS_16MutableCFOptionsEPNS_18VersionStorageInfoEiijPKNS_11InternalKeyESG_PPSE_Pb
librocksdb.so.5.4:_ZN7rocksdb16CompactionPicker15GetGrandparentsEPNS_18VersionStorageInfoERKNS_20CompactionInputFilesES5_PSt6vectorIPNS_12FileMetaDataESaIS8_EE
librocksdb.so.5.4:_ZN7rocksdb16CompactionPicker16SetupOtherInputsERKNSt7__cxx1112basic_stringIcSt11char_traitsIcESaIcEEERKNS_16MutableCFOptionsEPNS_18VersionStorageInfoEPNS_20CompactionInputFilesESF_Pii
librocksdb.so.5.4:_ZN7rocksdb16CompactionPicker18RegisterCompactionEPNS_10CompactionE
librocksdb.so.5.4:_ZN7rocksdb16CompactionPicker19IsRangeInCompactionEPNS_18VersionStorageInfoEPKNS_11InternalKeyES5_iPi
librocksdb.so.5.4:_ZN7rocksdb16CompactionPicker20AreFilesInCompactionERKSt6vectorIPNS_12FileMetaDataESaIS3_EE
librocksdb.so.5.4:_ZN7rocksdb16CompactionPicker20UnregisterCompactionEPNS_10CompactionE
librocksdb.so.5.4:_ZN7rocksdb16CompactionPicker22ExpandInputsToCleanCutERKNSt7__cxx1112basic_stringIcSt11char_traitsIcESaIcEEEPNS_18VersionStorageInfoEPNS_20CompactionInputFilesE
librocksdb.so.5.4:_ZN7rocksdb16CompactionPicker22ReleaseCompactionFilesEPNS_10CompactionENS_6StatusE
librocksdb.so.5.4:_ZN7rocksdb16CompactionPickerC1ERKNS_18ImmutableCFOptionsEPKNS_21InternalKeyComparatorE
librocksdb.so.5.4:_ZN7rocksdb16CompactionPickerC2ERKNS_18ImmutableCFOptionsEPKNS_21InternalKeyComparatorE
librocksdb.so.5.4:_ZN7rocksdb16CompactionPickerD0Ev
librocksdb.so.5.4:_ZN7rocksdb16CompactionPickerD1Ev
librocksdb.so.5.4:_ZN7rocksdb16CompactionPickerD2Ev
librocksdb.so.5.4:_ZN7rocksdb16CompactorCommand4HelpERNSt7__cxx1112basic_stringIcSt11char_traitsIcESaIcEEE
librocksdb.so.5.4:_ZN7rocksdb16CompactorCommand9DoCommandEv
librocksdb.so.5.4:_ZN7rocksdb16CompactorCommandC1ERKSt6vectorINSt7__cxx1112basic_stringIcSt11char_traitsIcESaIcEEESaIS7_EERKSt3mapIS7_S7_St4lessIS7_ESaISt4pairIKS7_S7_EEESB_
librocksdb.so.5.4:_ZN7rocksdb16CompactorCommandC2ERKSt6vectorINSt7__cxx1112basic_stringIcSt11char_traitsIcESaIcEEESaIS7_EERKSt3mapIS7_S7_St4lessIS7_ESaISt4pairIKS7_S7_EEESB_
librocksdb.so.5.4:_ZN7rocksdb16DBQuerierCommand4HelpERNSt7__cxx1112basic_stringIcSt11char_traitsIcESaIcEEE
librocksdb.so.5.4:_ZN7rocksdb16DBQuerierCommand9DoCommandEv
librocksdb.so.5.4:_ZN7rocksdb16DBQuerierCommandC1ERKSt6vectorINSt7__cxx1112basic_stringIcSt11char_traitsIcESaIcEEESaIS7_EERKSt3mapIS7_S7_St4lessIS7_ESaISt4pairIKS7_S7_EEESB_
librocksdb.so.5.4:_ZN7rocksdb16DBQuerierCommandC2ERKSt6vectorINSt7__cxx1112basic_stringIcSt11char_traitsIcESaIcEEESaIS7_EERKSt3mapIS7_S7_St4lessIS7_ESaISt4pairIKS7_S7_EEESB_
librocksdb.so.5.4:_ZN7rocksdb16DateTieredDBImpl11KeyMayExistERKNS_11ReadOptionsERKNS_5SliceEPNSt7__cxx1112basic_stringIcSt11char_traitsIcESaIcEEEPb
librocksdb.so.5.4:_ZN7rocksdb16DateTieredDBImpl11NewIteratorERKNS_11ReadOptionsE
librocksdb.so.5.4:_ZN7rocksdb16DateTieredDBImpl12GetTimestampERKNS_5SliceEPl
librocksdb.so.5.4:_ZN7rocksdb16DateTieredDBImpl16FindColumnFamilyElPPNS_18ColumnFamilyHandleEb
librocksdb.so.5.4:_ZN7rocksdb16DateTieredDBImpl18CreateColumnFamilyEPPNS_18ColumnFamilyHandleE
librocksdb.so.5.4:_ZN7rocksdb16DateTieredDBImpl26DropObsoleteColumnFamiliesEv
librocksdb.so.5.4:_ZN7rocksdb16DateTieredDBImpl3GetERKNS_11ReadOptionsERKNS_5SliceEPNSt7__cxx1112basic_stringIcSt11char_traitsIcESaIcEEE
librocksdb.so.5.4:_ZN7rocksdb16DateTieredDBImpl3PutERKNS_12WriteOptionsERKNS_5SliceES6_
librocksdb.so.5.4:_ZN7rocksdb16DateTieredDBImpl5MergeERKNS_12WriteOptionsERKNS_5SliceES6_
librocksdb.so.5.4:_ZN7rocksdb16DateTieredDBImpl5WriteERKNS_12WriteOptionsEPNS_10WriteBatchE
librocksdb.so.5.4:_ZN7rocksdb16DateTieredDBImpl6DeleteERKNS_12WriteOptionsERKNS_5SliceE
librocksdb.so.5.4:_ZN7rocksdb16DateTieredDBImpl7IsStaleEllPNS_3EnvE
librocksdb.so.5.4:_ZN7rocksdb16DateTieredDBImplC1EPNS_2DBENS_7OptionsERKSt6vectorINS_22ColumnFamilyDescriptorESaIS5_EERKS4_IPNS_18ColumnFamilyHandleESaISB_EEll
librocksdb.so.5.4:_ZN7rocksdb16DateTieredDBImplC2EPNS_2DBENS_7OptionsERKSt6vectorINS_22ColumnFamilyDescriptorESaIS5_EERKS4_IPNS_18ColumnFamilyHandleESaISB_EEll
librocksdb.so.5.4:_ZN7rocksdb16DateTieredDBImplD0Ev
librocksdb.so.5.4:_ZN7rocksdb16DateTieredDBImplD1Ev
librocksdb.so.5.4:_ZN7rocksdb16DateTieredDBImplD2Ev
librocksdb.so.5.4:_ZN7rocksdb16FormatFileNumberEmjPcm
librocksdb.so.5.4:_ZN7rocksdb16GetMergeOperandsERKSt3mapINSt7__cxx1112basic_stringIcSt11char_traitsIcESaIcEEES6_St4lessIS6_ESaISt4pairIKS6_S6_EEEPb
librocksdb.so.5.4:_ZN7rocksdb16IdentityFileNameERKNSt7__cxx1112basic_stringIcSt11char_traitsIcESaIcEEE
librocksdb.so.5.4:_ZN7rocksdb16LDBCommandRunner10RunCommandEiPPcNS_7OptionsERKNS_10LDBOptionsEPKSt6vectorINS_22ColumnFamilyDescriptorESaIS8_EE
librocksdb.so.5.4:_ZN7rocksdb16LDBCommandRunner9PrintHelpERKNS_10LDBOptionsEPKc
librocksdb.so.5.4:_ZN7rocksdb16MetaDatabaseNameERKNSt7__cxx1112basic_stringIcSt11char_traitsIcESaIcEEEm
librocksdb.so.5.4:_ZN7rocksdb16MetaIndexBuilder3AddERKNSt7__cxx1112basic_stringIcSt11char_traitsIcESaIcEEERKNS_11BlockHandleE
librocksdb.so.5.4:_ZN7rocksdb16MetaIndexBuilder6FinishEv
librocksdb.so.5.4:_ZN7rocksdb16MetaIndexBuilderC1Ev
librocksdb.so.5.4:_ZN7rocksdb16MetaIndexBuilderC2Ev
librocksdb.so.5.4:_ZN7rocksdb16MutableCFOptions21RefreshDerivedOptionsEiNS_15CompactionStyleE
librocksdb.so.5.4:_ZN7rocksdb16MutableDBOptionsC1ERKNS_9DBOptionsE
librocksdb.so.5.4:_ZN7rocksdb16MutableDBOptionsC1Ev
librocksdb.so.5.4:_ZN7rocksdb16MutableDBOptionsC2ERKNS_9DBOptionsE
librocksdb.so.5.4:_ZN7rocksdb16MutableDBOptionsC2Ev
librocksdb.so.5.4:_ZN7rocksdb16NewEmptyIteratorEv
librocksdb.so.5.4:_ZN7rocksdb16NewErrorIteratorERKNS_6StatusE
librocksdb.so.5.4:_ZN7rocksdb16NewNoopTransformEv
librocksdb.so.5.4:_ZN7rocksdb16PlainTableReader11NewIteratorERKNS_11ReadOptionsEPNS_5ArenaEPKNS_21InternalKeyComparatorEb
librocksdb.so.5.4:_ZN7rocksdb16PlainTableReader13PopulateIndexEPNS_15TablePropertiesEidmm
librocksdb.so.5.4:_ZN7rocksdb16PlainTableReader16MmapDataIfNeededEv
librocksdb.so.5.4:_ZN7rocksdb16PlainTableReader18SetupForCompactionEv
librocksdb.so.5.4:_ZN7rocksdb16PlainTableReader19ApproximateOffsetOfERKNS_5SliceE
librocksdb.so.5.4:_ZN7rocksdb16PlainTableReader20AllocateAndFillBloomEiimPSt6vectorIjSaIjEE
librocksdb.so.5.4:_ZN7rocksdb16PlainTableReader23PopulateIndexRecordListEPNS_22PlainTableIndexBuilderEPSt6vectorIjSaIjEE
librocksdb.so.5.4:_ZN7rocksdb16PlainTableReader3GetERKNS_11ReadOptionsERKNS_5SliceEPNS_10GetContextEb
librocksdb.so.5.4:_ZN7rocksdb16PlainTableReader4OpenERKNS_18ImmutableCFOptionsERKNS_10EnvOptionsERKNS_21InternalKeyComparatorEOSt10unique_ptrINS_22RandomAccessFileReaderESt14default_deleteISB_EEmPSA_INS_11TableReaderESC_ISG_EEidmmb
librocksdb.so.5.4:_ZN7rocksdb16PlainTableReader7PrepareERKNS_5SliceE
librocksdb.so.5.4:_ZN7rocksdb16PlainTableReader9FillBloomEPSt6vectorIjSaIjEE
librocksdb.so.5.4:_ZN7rocksdb16PlainTableReaderC1ERKNS_18ImmutableCFOptionsEOSt10unique_ptrINS_22RandomAccessFileReaderESt14default_deleteIS5_EERKNS_10EnvOptionsERKNS_21InternalKeyComparatorENS_12EncodingTypeEmPKNS_15TablePropertiesE
librocksdb.so.5.4:_ZN7rocksdb16PlainTableReaderC2ERKNS_18ImmutableCFOptionsEOSt10unique_ptrINS_22RandomAccessFileReaderESt14default_deleteIS5_EERKNS_10EnvOptionsERKNS_21InternalKeyComparatorENS_12EncodingTypeEmPKNS_15TablePropertiesE
librocksdb.so.5.4:_ZN7rocksdb16PlainTableReaderD0Ev
librocksdb.so.5.4:_ZN7rocksdb16PlainTableReaderD1Ev
librocksdb.so.5.4:_ZN7rocksdb16PlainTableReaderD2Ev
librocksdb.so.5.4:_ZN7rocksdb16RandomAccessFileD0Ev
librocksdb.so.5.4:_ZN7rocksdb16RandomAccessFileD1Ev
librocksdb.so.5.4:_ZN7rocksdb16RandomAccessFileD2Ev
librocksdb.so.5.4:_ZN7rocksdb16ReadFileToStringEPNS_3EnvERKNSt7__cxx1112basic_stringIcSt11char_traitsIcESaIcEEEPS7_
librocksdb.so.5.4:_ZN7rocksdb16ThreadStatusUtil14RegisterThreadEPKNS_3EnvENS_12ThreadStatus10ThreadTypeE
librocksdb.so.5.4:_ZN7rocksdb16ThreadStatusUtil14SetThreadStateENS_12ThreadStatus9StateTypeE
librocksdb.so.5.4:_ZN7rocksdb16ThreadStatusUtil15SetColumnFamilyEPKNS_16ColumnFamilyDataEPKNS_3EnvEb
librocksdb.so.5.4:_ZN7rocksdb16ThreadStatusUtil16UnregisterThreadEv
librocksdb.so.5.4:_ZN7rocksdb16ThreadStatusUtil17EraseDatabaseInfoEPKNS_2DBE
librocksdb.so.5.4:_ZN7rocksdb16ThreadStatusUtil17ResetThreadStatusEv
librocksdb.so.5.4:_ZN7rocksdb16ThreadStatusUtil18SetThreadOperationENS_12ThreadStatus13OperationTypeE
librocksdb.so.5.4:_ZN7rocksdb16ThreadStatusUtil19NewColumnFamilyInfoEPKNS_2DBEPKNS_16ColumnFamilyDataERKNSt7__cxx1112basic_stringIcSt11char_traitsIcESaIcEEEPKNS_3EnvE
librocksdb.so.5.4:_ZN7rocksdb16ThreadStatusUtil21EraseColumnFamilyInfoEPKNS_16ColumnFamilyDataE
librocksdb.so.5.4:_ZN7rocksdb16ThreadStatusUtil23SetThreadOperationStageENS_12ThreadStatus14OperationStageE
librocksdb.so.5.4:_ZN7rocksdb16ThreadStatusUtil26SetThreadOperationPropertyEim
librocksdb.so.5.4:_ZN7rocksdb16ThreadStatusUtil27MaybeInitThreadLocalUpdaterEPKNS_3EnvE
librocksdb.so.5.4:_ZN7rocksdb16ThreadStatusUtil31IncreaseThreadOperationPropertyEim
librocksdb.so.5.4:_ZN7rocksdb16VectorRepFactory17CreateMemTableRepERKNS_11MemTableRep13KeyComparatorEPNS_17MemTableAllocatorEPKNS_14SliceTransformEPNS_6LoggerE
librocksdb.so.5.4:_ZN7rocksdb16WALDumperCommand4HelpERNSt7__cxx1112basic_stringIcSt11char_traitsIcESaIcEEE
librocksdb.so.5.4:_ZN7rocksdb16WALDumperCommand9DoCommandEv
librocksdb.so.5.4:_ZN7rocksdb16WALDumperCommandC1ERKSt6vectorINSt7__cxx1112basic_stringIcSt11char_traitsIcESaIcEEESaIS7_EERKSt3mapIS7_S7_St4lessIS7_ESaISt4pairIKS7_S7_EEESB_
librocksdb.so.5.4:_ZN7rocksdb16WALDumperCommandC2ERKSt6vectorINSt7__cxx1112basic_stringIcSt11char_traitsIcESaIcEEESaIS7_EERKSt3mapIS7_S7_St4lessIS7_ESaISt4pairIKS7_S7_EEESB_
librocksdb.so.5.4:_ZN7rocksdb16XXH32_resetStateEPvj
librocksdb.so.5.4:_ZN7rocksdb17AppendHumanMicrosEmPcib
librocksdb.so.5.4:_ZN7rocksdb17AppendInternalKeyEPNSt7__cxx1112basic_stringIcSt11char_traitsIcESaIcEEERKNS_17ParsedInternalKeyE
librocksdb.so.5.4:_ZN7rocksdb17ApproxSizeCommand4HelpERNSt7__cxx1112basic_stringIcSt11char_traitsIcESaIcEEE
librocksdb.so.5.4:_ZN7rocksdb17ApproxSizeCommand9DoCommandEv
librocksdb.so.5.4:_ZN7rocksdb17ApproxSizeCommandC1ERKSt6vectorINSt7__cxx1112basic_stringIcSt11char_traitsIcESaIcEEESaIS7_EERKSt3mapIS7_S7_St4lessIS7_ESaISt4pairIKS7_S7_EEESB_
librocksdb.so.5.4:_ZN7rocksdb17ApproxSizeCommandC2ERKSt6vectorINSt7__cxx1112basic_stringIcSt11char_traitsIcESaIcEEESaIS7_EERKSt3mapIS7_S7_St4lessIS7_ESaISt4pairIKS7_S7_EEESB_
librocksdb.so.5.4:_ZN7rocksdb17ArchivalDirectoryERKNSt7__cxx1112basic_stringIcSt11char_traitsIcESaIcEEE
librocksdb.so.5.4:_ZN7rocksdb17BackupableCommand4HelpERKNSt7__cxx1112basic_stringIcSt11char_traitsIcESaIcEEERS6_
librocksdb.so.5.4:_ZN7rocksdb17BackupableCommandC1ERKSt6vectorINSt7__cxx1112basic_stringIcSt11char_traitsIcESaIcEEESaIS7_EERKSt3mapIS7_S7_St4lessIS7_ESaISt4pairIKS7_S7_EEESB_
librocksdb.so.5.4:_ZN7rocksdb17BackupableCommandC2ERKSt6vectorINSt7__cxx1112basic_stringIcSt11char_traitsIcESaIcEEESaIS7_EERKSt3mapIS7_S7_St4lessIS7_ESaISt4pairIKS7_S7_EEESB_
librocksdb.so.5.4:_ZN7rocksdb17BloomBlockBuilder13AddKeysHashesERKSt6vectorIjSaIjEE
librocksdb.so.5.4:_ZN7rocksdb17BloomBlockBuilder6FinishEv
librocksdb.so.5.4:_ZN7rocksdb17CheckPointCommand4HelpERNSt7__cxx1112basic_stringIcSt11char_traitsIcESaIcEEE
librocksdb.so.5.4:_ZN7rocksdb17CheckPointCommand9DoCommandEv
librocksdb.so.5.4:_ZN7rocksdb17CheckPointCommandC1ERKSt6vectorINSt7__cxx1112basic_stringIcSt11char_traitsIcESaIcEEESaIS7_EERKSt3mapIS7_S7_St4lessIS7_ESaISt4pairIKS7_S7_EEESB_
librocksdb.so.5.4:_ZN7rocksdb17CheckPointCommandC2ERKSt6vectorINSt7__cxx1112basic_stringIcSt11char_traitsIcESaIcEEESaIS7_EERKSt3mapIS7_S7_St4lessIS7_ESaISt4pairIKS7_S7_EEESB_
librocksdb.so.5.4:_ZN7rocksdb17CuckooTableReader11NewIteratorERKNS_11ReadOptionsEPNS_5ArenaEPKNS_21InternalKeyComparatorEb
librocksdb.so.5.4:_ZN7rocksdb17CuckooTableReader3GetERKNS_11ReadOptionsERKNS_5SliceEPNS_10GetContextEb
librocksdb.so.5.4:_ZN7rocksdb17CuckooTableReader7PrepareERKNS_5SliceE
librocksdb.so.5.4:_ZN7rocksdb17CuckooTableReaderC1ERKNS_18ImmutableCFOptionsEOSt10unique_ptrINS_22RandomAccessFileReaderESt14default_deleteIS5_EEmPKNS_10ComparatorEPFmRKNS_5SliceEjmE
librocksdb.so.5.4:_ZN7rocksdb17CuckooTableReaderC2ERKNS_18ImmutableCFOptionsEOSt10unique_ptrINS_22RandomAccessFileReaderESt14default_deleteIS5_EEmPKNS_10ComparatorEPFmRKNS_5SliceEjmE
librocksdb.so.5.4:_ZN7rocksdb17DumpDBFileSummaryERKNS_18ImmutableDBOptionsERKNSt7__cxx1112basic_stringIcSt11char_traitsIcESaIcEEE
librocksdb.so.5.4:_ZN7rocksdb17EventLoggerStreamC1EPNS_6LoggerE
librocksdb.so.5.4:_ZN7rocksdb17EventLoggerStreamC1EPNS_9LogBufferE
librocksdb.so.5.4:_ZN7rocksdb17EventLoggerStreamC2EPNS_6LoggerE
librocksdb.so.5.4:_ZN7rocksdb17EventLoggerStreamC2EPNS_9LogBufferE
librocksdb.so.5.4:_ZN7rocksdb17EventLoggerStreamD1Ev
librocksdb.so.5.4:_ZN7rocksdb17EventLoggerStreamD2Ev
librocksdb.so.5.4:_ZN7rocksdb17GetColumnFamilyIDEPNS_18ColumnFamilyHandleE
librocksdb.so.5.4:_ZN7rocksdb17InstrumentedMutex12LockInternalEv
librocksdb.so.5.4:_ZN7rocksdb17InstrumentedMutex4LockEv
librocksdb.so.5.4:_ZN7rocksdb17LoadLatestOptionsERKNSt7__cxx1112basic_stringIcSt11char_traitsIcESaIcEEEPNS_3EnvEPNS_9DBOptionsEPSt6vectorINS_22ColumnFamilyDescriptorESaISD_EE
librocksdb.so.5.4:_ZN7rocksdb17MakeTableFileNameERKNSt7__cxx1112basic_stringIcSt11char_traitsIcESaIcEEEm
librocksdb.so.5.4:_ZN7rocksdb17MemTableAllocator14DoneAllocatingEv
librocksdb.so.5.4:_ZN7rocksdb17MemTableAllocator15AllocateAlignedEmmPNS_6LoggerE
librocksdb.so.5.4:_ZN7rocksdb17MemTableAllocator8AllocateEm
librocksdb.so.5.4:_ZN7rocksdb17MemTableAllocatorC1EPNS_9AllocatorEPNS_18WriteBufferManagerE
librocksdb.so.5.4:_ZN7rocksdb17MemTableAllocatorC2EPNS_9AllocatorEPNS_18WriteBufferManagerE
librocksdb.so.5.4:_ZN7rocksdb17MemTableAllocatorD0Ev
librocksdb.so.5.4:_ZN7rocksdb17MemTableAllocatorD1Ev
librocksdb.so.5.4:_ZN7rocksdb17MemTableAllocatorD2Ev
librocksdb.so.5.4:_ZN7rocksdb17NewSstFileManagerEPNS_3EnvESt10shared_ptrINS_6LoggerEENSt7__cxx1112basic_stringIcSt11char_traitsIcESaIcEEElbPNS_6StatusE
librocksdb.so.5.4:_ZN7rocksdb17OptimizeBlockSizeEm
librocksdb.so.5.4:_ZN7rocksdb17PlainTableBuilder3AddERKNS_5SliceES3_
librocksdb.so.5.4:_ZN7rocksdb17PlainTableBuilder6FinishEv
librocksdb.so.5.4:_ZN7rocksdb17PlainTableBuilder7AbandonEv
librocksdb.so.5.4:_ZN7rocksdb17PlainTableBuilderC1ERKNS_18ImmutableCFOptionsEPKSt6vectorISt10unique_ptrINS_26IntTblPropCollectorFactoryESt14default_deleteIS6_EESaIS9_EEjPNS_18WritableFileWriterEjNS_12EncodingTypeEmjRKNSt7__cxx1112basic_stringIcSt11char_traitsIcESaIcEEEjmdb
librocksdb.so.5.4:_ZN7rocksdb17PlainTableBuilderC2ERKNS_18ImmutableCFOptionsEPKSt6vectorISt10unique_ptrINS_26IntTblPropCollectorFactoryESt14default_deleteIS6_EESaIS9_EEjPNS_18WritableFileWriterEjNS_12EncodingTypeEmjRKNSt7__cxx1112basic_stringIcSt11char_traitsIcESaIcEEEjmdb
librocksdb.so.5.4:_ZN7rocksdb17PlainTableBuilderD0Ev
librocksdb.so.5.4:_ZN7rocksdb17PlainTableBuilderD1Ev
librocksdb.so.5.4:_ZN7rocksdb17PlainTableBuilderD2Ev
librocksdb.so.5.4:_ZN7rocksdb17PosixRandomRWFile4SyncEv
librocksdb.so.5.4:_ZN7rocksdb17PosixRandomRWFile5CloseEv
librocksdb.so.5.4:_ZN7rocksdb17PosixRandomRWFile5FlushEv
librocksdb.so.5.4:_ZN7rocksdb17PosixRandomRWFile5FsyncEv
librocksdb.so.5.4:_ZN7rocksdb17PosixRandomRWFile5WriteEmRKNS_5SliceE
librocksdb.so.5.4:_ZN7rocksdb17PosixRandomRWFileC1ERKNSt7__cxx1112basic_stringIcSt11char_traitsIcESaIcEEEiRKNS_10EnvOptionsE
librocksdb.so.5.4:_ZN7rocksdb17PosixRandomRWFileC2ERKNSt7__cxx1112basic_stringIcSt11char_traitsIcESaIcEEEiRKNS_10EnvOptionsE
librocksdb.so.5.4:_ZN7rocksdb17PosixRandomRWFileD0Ev
librocksdb.so.5.4:_ZN7rocksdb17PosixRandomRWFileD1Ev
librocksdb.so.5.4:_ZN7rocksdb17PosixRandomRWFileD2Ev
librocksdb.so.5.4:_ZN7rocksdb17PosixWritableFile11GetFileSizeEv
librocksdb.so.5.4:_ZN7rocksdb17PosixWritableFile15InvalidateCacheEmm
librocksdb.so.5.4:_ZN7rocksdb17PosixWritableFile16PositionedAppendERKNS_5SliceEm
librocksdb.so.5.4:_ZN7rocksdb17PosixWritableFile4SyncEv
librocksdb.so.5.4:_ZN7rocksdb17PosixWritableFile5CloseEv
librocksdb.so.5.4:_ZN7rocksdb17PosixWritableFile5FlushEv
librocksdb.so.5.4:_ZN7rocksdb17PosixWritableFile5FsyncEv
librocksdb.so.5.4:_ZN7rocksdb17PosixWritableFile6AppendERKNS_5SliceE
librocksdb.so.5.4:_ZN7rocksdb17PosixWritableFile8AllocateEmm
librocksdb.so.5.4:_ZN7rocksdb17PosixWritableFile8TruncateEm
librocksdb.so.5.4:_ZN7rocksdb17PosixWritableFile9RangeSyncEmm
librocksdb.so.5.4:_ZN7rocksdb17PosixWritableFileC1ERKNSt7__cxx1112basic_stringIcSt11char_traitsIcESaIcEEEiRKNS_10EnvOptionsE
librocksdb.so.5.4:_ZN7rocksdb17PosixWritableFileC2ERKNSt7__cxx1112basic_stringIcSt11char_traitsIcESaIcEEEiRKNS_10EnvOptionsE
librocksdb.so.5.4:_ZN7rocksdb17PosixWritableFileD0Ev
librocksdb.so.5.4:_ZN7rocksdb17PosixWritableFileD1Ev
librocksdb.so.5.4:_ZN7rocksdb17PosixWritableFileD2Ev
librocksdb.so.5.4:_ZN7rocksdb17ReadBlockContentsEPNS_22RandomAccessFileReaderERKNS_6FooterERKNS_11ReadOptionsERKNS_11BlockHandleEPNS_13BlockContentsERKNS_18ImmutableCFOptionsEbRKNS_5SliceERKNS_22PersistentCacheOptionsE
librocksdb.so.5.4:_ZN7rocksdb17TransactionDBImpl10InitializeERKSt6vectorImSaImEERKS1_IPNS_18ColumnFamilyHandleESaIS7_EE
librocksdb.so.5.4:_ZN7rocksdb17TransactionDBImpl15AddColumnFamilyEPKNS_18ColumnFamilyHandleE
librocksdb.so.5.4:_ZN7rocksdb17TransactionDBImpl16BeginTransactionERKNS_12WriteOptionsERKNS_18TransactionOptionsEPNS_11TransactionE
librocksdb.so.5.4:_ZN7rocksdb17TransactionDBImpl16DropColumnFamilyEPNS_18ColumnFamilyHandleE
librocksdb.so.5.4:_ZN7rocksdb17TransactionDBImpl17GetLockStatusDataEv
librocksdb.so.5.4:_ZN7rocksdb17TransactionDBImpl18CreateColumnFamilyERKNS_19ColumnFamilyOptionsERKNSt7__cxx1112basic_stringIcSt11char_traitsIcESaIcEEEPPNS_18ColumnFamilyHandleE
librocksdb.so.5.4:_ZN7rocksdb17TransactionDBImpl19RegisterTransactionEPNS_11TransactionE
librocksdb.so.5.4:_ZN7rocksdb17TransactionDBImpl20GetTransactionByNameERKNSt7__cxx1112basic_stringIcSt11char_traitsIcESaIcEEE
librocksdb.so.5.4:_ZN7rocksdb17TransactionDBImpl20ValidateTxnDBOptionsERKNS_20TransactionDBOptionsE
librocksdb.so.5.4:_ZN7rocksdb17TransactionDBImpl21UnregisterTransactionEPNS_11TransactionE
librocksdb.so.5.4:_ZN7rocksdb17TransactionDBImpl23ReinitializeTransactionEPNS_11TransactionERKNS_12WriteOptionsERKNS_18TransactionOptionsE
librocksdb.so.5.4:_ZN7rocksdb17TransactionDBImpl24BeginInternalTransactionERKNS_12WriteOptionsE
librocksdb.so.5.4:_ZN7rocksdb17TransactionDBImpl26GetAllPreparedTransactionsEPSt6vectorIPNS_11TransactionESaIS3_EE
librocksdb.so.5.4:_ZN7rocksdb17TransactionDBImpl26InsertExpirableTransactionEmPNS_15TransactionImplE
librocksdb.so.5.4:_ZN7rocksdb17TransactionDBImpl26RemoveExpirableTransactionEm
librocksdb.so.5.4:_ZN7rocksdb17TransactionDBImpl34TryStealingExpiredTransactionLocksEm
librocksdb.so.5.4:_ZN7rocksdb17TransactionDBImpl3PutERKNS_12WriteOptionsEPNS_18ColumnFamilyHandleERKNS_5SliceES8_
librocksdb.so.5.4:_ZN7rocksdb17TransactionDBImpl5MergeERKNS_12WriteOptionsEPNS_18ColumnFamilyHandleERKNS_5SliceES8_
librocksdb.so.5.4:_ZN7rocksdb17TransactionDBImpl5WriteERKNS_12WriteOptionsEPNS_10WriteBatchE
librocksdb.so.5.4:_ZN7rocksdb17TransactionDBImpl6DeleteERKNS_12WriteOptionsEPNS_18ColumnFamilyHandleERKNS_5SliceE
librocksdb.so.5.4:_ZN7rocksdb17TransactionDBImpl6UnLockEPNS_15TransactionImplEPKSt13unordered_mapIjS3_INSt7__cxx1112basic_stringIcSt11char_traitsIcESaIcEEENS_21TransactionKeyMapInfoESt4hashIS9_ESt8equal_toIS9_ESaISt4pairIKS9_SA_EEESB_IjESD_IjESaISF_IKjSJ_EEE
librocksdb.so.5.4:_ZN7rocksdb17TransactionDBImpl6UnLockEPNS_15TransactionImplEjRKNSt7__cxx1112basic_stringIcSt11char_traitsIcESaIcEEE
librocksdb.so.5.4:_ZN7rocksdb17TransactionDBImpl7TryLockEPNS_15TransactionImplEjRKNSt7__cxx1112basic_stringIcSt11char_traitsIcESaIcEEEb
librocksdb.so.5.4:_ZN7rocksdb17TransactionDBImplC1EPNS_11StackableDBERKNS_20TransactionDBOptionsE
librocksdb.so.5.4:_ZN7rocksdb17TransactionDBImplC1EPNS_2DBERKNS_20TransactionDBOptionsE
librocksdb.so.5.4:_ZN7rocksdb17TransactionDBImplC2EPNS_11StackableDBERKNS_20TransactionDBOptionsE
librocksdb.so.5.4:_ZN7rocksdb17TransactionDBImplC2EPNS_2DBERKNS_20TransactionDBOptionsE
librocksdb.so.5.4:_ZN7rocksdb17TransactionDBImplD0Ev
librocksdb.so.5.4:_ZN7rocksdb17TransactionDBImplD1Ev
librocksdb.so.5.4:_ZN7rocksdb17TransactionDBImplD2Ev
librocksdb.so.5.4:_ZN7rocksdb17VolatileCacheTier15DeleteCacheDataEPNS0_9CacheDataE
librocksdb.so.5.4:_ZN7rocksdb17VolatileCacheTier5EraseERKNS_5SliceE
librocksdb.so.5.4:_ZN7rocksdb17VolatileCacheTier5EvictEv
librocksdb.so.5.4:_ZN7rocksdb17VolatileCacheTier5StatsB5cxx11Ev
librocksdb.so.5.4:_ZN7rocksdb17VolatileCacheTier6InsertERKNS_5SliceEPKcm
librocksdb.so.5.4:_ZN7rocksdb17VolatileCacheTier6LookupERKNS_5SliceEPSt10unique_ptrIA_cSt14default_deleteIS5_EEPm
librocksdb.so.5.4:_ZN7rocksdb17VolatileCacheTierD0Ev
librocksdb.so.5.4:_ZN7rocksdb17VolatileCacheTierD1Ev
librocksdb.so.5.4:_ZN7rocksdb17VolatileCacheTierD2Ev
librocksdb.so.5.4:_ZN7rocksdb17WriteStringToFileEPNS_3EnvERKNS_5SliceERKNSt7__cxx1112basic_stringIcSt11char_traitsIcESaIcEEEb
librocksdb.so.5.4:_ZN7rocksdb17XXH32_sizeofStateEv
librocksdb.so.5.4:_ZN7rocksdb18ArenaWrappedDBIter15RegisterCleanupEPFvPvS1_ES1_S1_
librocksdb.so.5.4:_ZN7rocksdb18ArenaWrappedDBIter18SetIterUnderDBIterEPNS_16InternalIteratorE
librocksdb.so.5.4:_ZN7rocksdb18ArenaWrappedDBIter21GetRangeDelAggregatorEv
librocksdb.so.5.4:_ZN7rocksdb18ArenaWrappedDBIter9SetDBIterEPNS_6DBIterE
librocksdb.so.5.4:_ZN7rocksdb18ArenaWrappedDBIterD0Ev
librocksdb.so.5.4:_ZN7rocksdb18ArenaWrappedDBIterD1Ev
librocksdb.so.5.4:_ZN7rocksdb18ArenaWrappedDBIterD2Ev
librocksdb.so.5.4:_ZN7rocksdb18BytesToHumanStringB5cxx11Em
librocksdb.so.5.4:_ZN7rocksdb18BytewiseComparatorEv
librocksdb.so.5.4:_ZN7rocksdb18CompactionIterator11SeekToFirstEv
librocksdb.so.5.4:_ZN7rocksdb18CompactionIterator13NextFromInputEv
librocksdb.so.5.4:_ZN7rocksdb18CompactionIterator13PrepareOutputEv
librocksdb.so.5.4:_ZN7rocksdb18CompactionIterator17ResetRecordCountsEv
librocksdb.so.5.4:_ZN7rocksdb18CompactionIterator4NextEv
librocksdb.so.5.4:_ZN7rocksdb18CompactionIteratorC1EPNS_16InternalIteratorEPKNS_10ComparatorEPNS_11MergeHelperEmPSt6vectorImSaImEEmPNS_3EnvEbPNS_18RangeDelAggregatorEPKNS_10CompactionEPKNS_16CompactionFilterEPNS_23CompactionEventListenerEPKSt6atomicIbE
librocksdb.so.5.4:_ZN7rocksdb18CompactionIteratorC1EPNS_16InternalIteratorEPKNS_10ComparatorEPNS_11MergeHelperEmPSt6vectorImSaImEEmPNS_3EnvEbPNS_18RangeDelAggregatorESt10unique_ptrINS0_15CompactionProxyESt14default_deleteISH_EEPKNS_16CompactionFilterEPNS_23CompactionEventListenerEPKSt6atomicIbE
librocksdb.so.5.4:_ZN7rocksdb18CompactionIteratorC2EPNS_16InternalIteratorEPKNS_10ComparatorEPNS_11MergeHelperEmPSt6vectorImSaImEEmPNS_3EnvEbPNS_18RangeDelAggregatorEPKNS_10CompactionEPKNS_16CompactionFilterEPNS_23CompactionEventListenerEPKSt6atomicIbE
librocksdb.so.5.4:_ZN7rocksdb18CompactionIteratorC2EPNS_16InternalIteratorEPKNS_10ComparatorEPNS_11MergeHelperEmPSt6vectorImSaImEEmPNS_3EnvEbPNS_18RangeDelAggregatorESt10unique_ptrINS0_15CompactionProxyESt14default_deleteISH_EEPKNS_16CompactionFilterEPNS_23CompactionEventListenerEPKSt6atomicIbE
librocksdb.so.5.4:_ZN7rocksdb18CompactionIteratorD1Ev
librocksdb.so.5.4:_ZN7rocksdb18CompactionIteratorD2Ev
librocksdb.so.5.4:_ZN7rocksdb18CompactionJobStats3AddERKS0_
librocksdb.so.5.4:_ZN7rocksdb18CompactionJobStats5ResetEv
librocksdb.so.5.4:_ZN7rocksdb18CreateDBStatisticsEv
librocksdb.so.5.4:_ZN7rocksdb18CuckooTableBuilder13MakeHashTableEPSt6vectorINS0_12CuckooBucketESaIS2_EE
librocksdb.so.5.4:_ZN7rocksdb18CuckooTableBuilder15MakeSpaceForKeyERKNS_10autovectorImLm8EEEjPSt6vectorINS0_12CuckooBucketESaIS6_EEPm
librocksdb.so.5.4:_ZN7rocksdb18CuckooTableBuilder3AddERKNS_5SliceES3_
librocksdb.so.5.4:_ZN7rocksdb18CuckooTableBuilder6FinishEv
librocksdb.so.5.4:_ZN7rocksdb18CuckooTableBuilder7AbandonEv
librocksdb.so.5.4:_ZN7rocksdb18CuckooTableBuilderC1EPNS_18WritableFileWriterEdjjPKNS_10ComparatorEjbbPFmRKNS_5SliceEjmEjRKNSt7__cxx1112basic_stringIcSt11char_traitsIcESaIcEEE
librocksdb.so.5.4:_ZN7rocksdb18CuckooTableBuilderC2EPNS_18WritableFileWriterEdjjPKNS_10ComparatorEjbbPFmRKNS_5SliceEjmEjRKNSt7__cxx1112basic_stringIcSt11char_traitsIcESaIcEEE
librocksdb.so.5.4:_ZN7rocksdb18DeleteFilesInRangeEPNS_2DBEPNS_18ColumnFamilyHandleEPKNS_5SliceES6_
librocksdb.so.5.4:_ZN7rocksdb18DeleteRangeCommand4HelpERNSt7__cxx1112basic_stringIcSt11char_traitsIcESaIcEEE
librocksdb.so.5.4:_ZN7rocksdb18DeleteRangeCommand9DoCommandEv
librocksdb.so.5.4:_ZN7rocksdb18DeleteRangeCommandC1ERKSt6vectorINSt7__cxx1112basic_stringIcSt11char_traitsIcESaIcEEESaIS7_EERKSt3mapIS7_S7_St4lessIS7_ESaISt4pairIKS7_S7_EEESB_
librocksdb.so.5.4:_ZN7rocksdb18DeleteRangeCommandC2ERKSt6vectorINSt7__cxx1112basic_stringIcSt11char_traitsIcESaIcEEESaIS7_EERKSt3mapIS7_S7_St4lessIS7_ESaISt4pairIKS7_S7_EEESB_
librocksdb.so.5.4:_ZN7rocksdb18DescriptorFileNameERKNSt7__cxx1112basic_stringIcSt11char_traitsIcESaIcEEEm
librocksdb.so.5.4:_ZN7rocksdb18EscapeOptionStringERKNSt7__cxx1112basic_stringIcSt11char_traitsIcESaIcEEE
librocksdb.so.5.4:_ZN7rocksdb18GenericRateLimiter17SetBytesPerSecondEl
librocksdb.so.5.4:_ZN7rocksdb18GenericRateLimiter29CalculateRefillBytesPerPeriodEl
librocksdb.so.5.4:_ZN7rocksdb18GenericRateLimiter6RefillEv
librocksdb.so.5.4:_ZN7rocksdb18GenericRateLimiter7RequestElNS_3Env10IOPriorityEPNS_10StatisticsE
librocksdb.so.5.4:_ZN7rocksdb18GenericRateLimiterC1Elli
librocksdb.so.5.4:_ZN7rocksdb18GenericRateLimiterC2Elli
librocksdb.so.5.4:_ZN7rocksdb18GenericRateLimiterD0Ev
librocksdb.so.5.4:_ZN7rocksdb18GenericRateLimiterD1Ev
librocksdb.so.5.4:_ZN7rocksdb18GenericRateLimiterD2Ev
librocksdb.so.5.4:_ZN7rocksdb18GetCompressionTypeERKNS_18ImmutableCFOptionsEPKNS_18VersionStorageInfoERKNS_16MutableCFOptionsEiib
librocksdb.so.5.4:_ZN7rocksdb18ImmutableCFOptionsC1ERKNS_18ImmutableDBOptionsERKNS_19ColumnFamilyOptionsE
librocksdb.so.5.4:_ZN7rocksdb18ImmutableCFOptionsC1ERKNS_7OptionsE
librocksdb.so.5.4:_ZN7rocksdb18ImmutableCFOptionsC2ERKNS_18ImmutableDBOptionsERKNS_19ColumnFamilyOptionsE
librocksdb.so.5.4:_ZN7rocksdb18ImmutableCFOptionsC2ERKNS_7OptionsE
librocksdb.so.5.4:_ZN7rocksdb18ImmutableDBOptionsC1ERKNS_9DBOptionsE
librocksdb.so.5.4:_ZN7rocksdb18ImmutableDBOptionsC1Ev
librocksdb.so.5.4:_ZN7rocksdb18ImmutableDBOptionsC2ERKNS_9DBOptionsE
librocksdb.so.5.4:_ZN7rocksdb18ImmutableDBOptionsC2Ev
librocksdb.so.5.4:_ZN7rocksdb18NewMergingIteratorEPKNS_10ComparatorEPPNS_16InternalIteratorEiPNS_5ArenaEb
librocksdb.so.5.4:_ZN7rocksdb18NewPersistentCacheEPNS_3EnvERKNSt7__cxx1112basic_stringIcSt11char_traitsIcESaIcEEEmRKSt10shared_ptrINS_6LoggerEEbPSA_INS_15PersistentCacheEE
librocksdb.so.5.4:_ZN7rocksdb18NewestFirstBySeqNoEPNS_12FileMetaDataES1_
librocksdb.so.5.4:_ZN7rocksdb18OldInfoLogFileNameERKNSt7__cxx1112basic_stringIcSt11char_traitsIcESaIcEEEmS7_S7_
librocksdb.so.5.4:_ZN7rocksdb18PlainTableIterator10SeekToLastEv
librocksdb.so.5.4:_ZN7rocksdb18PlainTableIterator11SeekForPrevERKNS_5SliceE
librocksdb.so.5.4:_ZN7rocksdb18PlainTableIterator11SeekToFirstEv
librocksdb.so.5.4:_ZN7rocksdb18PlainTableIterator4NextEv
librocksdb.so.5.4:_ZN7rocksdb18PlainTableIterator4PrevEv
librocksdb.so.5.4:_ZN7rocksdb18PlainTableIterator4SeekERKNS_5SliceE
librocksdb.so.5.4:_ZN7rocksdb18PlainTableIteratorC1EPNS_16PlainTableReaderEb
librocksdb.so.5.4:_ZN7rocksdb18PlainTableIteratorC2EPNS_16PlainTableReaderEb
librocksdb.so.5.4:_ZN7rocksdb18PlainTableIteratorD0Ev
librocksdb.so.5.4:_ZN7rocksdb18PlainTableIteratorD1Ev
librocksdb.so.5.4:_ZN7rocksdb18PlainTableIteratorD2Ev
librocksdb.so.5.4:_ZN7rocksdb18RangeDelAggregator12AddToBuilderEPNS_12TableBuilderEPKNS_5SliceES5_PNS_12FileMetaDataEP24CompactionIterationStatsb
librocksdb.so.5.4:_ZN7rocksdb18RangeDelAggregator12AddTombstoneENS_14RangeTombstoneE
librocksdb.so.5.4:_ZN7rocksdb18RangeDelAggregator12ShouldDeleteERKNS_17ParsedInternalKeyENS0_20RangePositioningModeE
librocksdb.so.5.4:_ZN7rocksdb18RangeDelAggregator12ShouldDeleteERKNS_5SliceENS0_20RangePositioningModeE
librocksdb.so.5.4:_ZN7rocksdb18RangeDelAggregator13AddTombstonesESt10unique_ptrINS_16InternalIteratorESt14default_deleteIS2_EE
librocksdb.so.5.4:_ZN7rocksdb18RangeDelAggregator19ShouldAddTombstonesEb
librocksdb.so.5.4:_ZN7rocksdb18RangeDelAggregator25GetPositionalTombstoneMapEm
librocksdb.so.5.4:_ZN7rocksdb18RangeDelAggregator31InvalidateTombstoneMapPositionsEv
librocksdb.so.5.4:_ZN7rocksdb18RangeDelAggregator7InitRepERKSt6vectorImSaImEE
librocksdb.so.5.4:_ZN7rocksdb18RangeDelAggregator7IsEmptyEv
librocksdb.so.5.4:_ZN7rocksdb18RangeDelAggregatorC1ERKNS_21InternalKeyComparatorERKSt6vectorImSaImEEb
librocksdb.so.5.4:_ZN7rocksdb18RangeDelAggregatorC1ERKNS_21InternalKeyComparatorEmb
librocksdb.so.5.4:_ZN7rocksdb18RangeDelAggregatorC2ERKNS_21InternalKeyComparatorERKSt6vectorImSaImEEb
librocksdb.so.5.4:_ZN7rocksdb18RangeDelAggregatorC2ERKNS_21InternalKeyComparatorEmb
librocksdb.so.5.4:_ZN7rocksdb18ReadFooterFromFileEPNS_22RandomAccessFileReaderEmPNS_6FooterEm
librocksdb.so.5.4:_ZN7rocksdb18SerializeIntVectorERKSt6vectorIiSaIiEEPNSt7__cxx1112basic_stringIcSt11char_traitsIcESaIcEEE
librocksdb.so.5.4:_ZN7rocksdb18SstFileManagerImpl10OnMoveFileERKNSt7__cxx1112basic_stringIcSt11char_traitsIcESaIcEEES8_
librocksdb.so.5.4:_ZN7rocksdb18SstFileManagerImpl12GetTotalSizeEv
librocksdb.so.5.4:_ZN7rocksdb18SstFileManagerImpl12OnDeleteFileERKNSt7__cxx1112basic_stringIcSt11char_traitsIcESaIcEEE
librocksdb.so.5.4:_ZN7rocksdb18SstFileManagerImpl13OnAddFileImplERKNSt7__cxx1112basic_stringIcSt11char_traitsIcESaIcEEEm
librocksdb.so.5.4:_ZN7rocksdb18SstFileManagerImpl15GetTrackedFilesB5cxx11Ev
librocksdb.so.5.4:_ZN7rocksdb18SstFileManagerImpl16OnDeleteFileImplERKNSt7__cxx1112basic_stringIcSt11char_traitsIcESaIcEEE
librocksdb.so.5.4:_ZN7rocksdb18SstFileManagerImpl17WaitForEmptyTrashEv
librocksdb.so.5.4:_ZN7rocksdb18SstFileManagerImpl20ScheduleFileDeletionERKNSt7__cxx1112basic_stringIcSt11char_traitsIcESaIcEEE
librocksdb.so.5.4:_ZN7rocksdb18SstFileManagerImpl23SetMaxAllowedSpaceUsageEm
librocksdb.so.5.4:_ZN7rocksdb18SstFileManagerImpl24IsMaxAllowedSpaceReachedEv
librocksdb.so.5.4:_ZN7rocksdb18SstFileManagerImpl27GetDeleteRateBytesPerSecondEv
librocksdb.so.5.4:_ZN7rocksdb18SstFileManagerImpl27SetDeleteRateBytesPerSecondEl
librocksdb.so.5.4:_ZN7rocksdb18SstFileManagerImpl9OnAddFileERKNSt7__cxx1112basic_stringIcSt11char_traitsIcESaIcEEE
librocksdb.so.5.4:_ZN7rocksdb18SstFileManagerImplC1EPNS_3EnvESt10shared_ptrINS_6LoggerEERKNSt7__cxx1112basic_stringIcSt11char_traitsIcESaIcEEEl
librocksdb.so.5.4:_ZN7rocksdb18SstFileManagerImplC2EPNS_3EnvESt10shared_ptrINS_6LoggerEERKNSt7__cxx1112basic_stringIcSt11char_traitsIcESaIcEEEl
librocksdb.so.5.4:_ZN7rocksdb18SstFileManagerImplD0Ev
librocksdb.so.5.4:_ZN7rocksdb18SstFileManagerImplD1Ev
librocksdb.so.5.4:_ZN7rocksdb18SstFileManagerImplD2Ev
librocksdb.so.5.4:_ZN7rocksdb18TransactionLockMgr10GetLockMapEj
librocksdb.so.5.4:_ZN7rocksdb18TransactionLockMgr13AcquireLockedEPNS_7LockMapEPNS_13LockMapStripeERKNSt7__cxx1112basic_stringIcSt11char_traitsIcESaIcEEEPNS_3EnvERKNS_8LockInfoEPmPNS_10autovectorImLm8EEE
librocksdb.so.5.4:_ZN7rocksdb18TransactionLockMgr13IsLockExpiredEmRKNS_8LockInfoEPNS_3EnvEPm
librocksdb.so.5.4:_ZN7rocksdb18TransactionLockMgr15AddColumnFamilyEj
librocksdb.so.5.4:_ZN7rocksdb18TransactionLockMgr16DecrementWaitersEPKNS_15TransactionImplERKNS_10autovectorImLm8EEE
librocksdb.so.5.4:_ZN7rocksdb18TransactionLockMgr16IncrementWaitersEPKNS_15TransactionImplERKNS_10autovectorImLm8EEE
librocksdb.so.5.4:_ZN7rocksdb18TransactionLockMgr17GetLockStatusDataEv
librocksdb.so.5.4:_ZN7rocksdb18TransactionLockMgr18AcquireWithTimeoutEPNS_15TransactionImplEPNS_7LockMapEPNS_13LockMapStripeEjRKNSt7__cxx1112basic_stringIcSt11char_traitsIcESaIcEEEPNS_3EnvElRKNS_8LockInfoE
librocksdb.so.5.4:_ZN7rocksdb18TransactionLockMgr18RemoveColumnFamilyEj
librocksdb.so.5.4:_ZN7rocksdb18TransactionLockMgr20DecrementWaitersImplEPKNS_15TransactionImplERKNS_10autovectorImLm8EEE
librocksdb.so.5.4:_ZN7rocksdb18TransactionLockMgr6UnLockEPKNS_15TransactionImplEPKSt13unordered_mapIjS4_INSt7__cxx1112basic_stringIcSt11char_traitsIcESaIcEEENS_21TransactionKeyMapInfoESt4hashISA_ESt8equal_toISA_ESaISt4pairIKSA_SB_EEESC_IjESE_IjESaISG_IKjSK_EEEPNS_3EnvE
librocksdb.so.5.4:_ZN7rocksdb18TransactionLockMgr6UnLockEPNS_15TransactionImplEjRKNSt7__cxx1112basic_stringIcSt11char_traitsIcESaIcEEEPNS_3EnvE
librocksdb.so.5.4:_ZN7rocksdb18TransactionLockMgr7TryLockEPNS_15TransactionImplEjRKNSt7__cxx1112basic_stringIcSt11char_traitsIcESaIcEEEPNS_3EnvEb
librocksdb.so.5.4:_ZN7rocksdb18TransactionLockMgr9UnLockKeyEPKNS_15TransactionImplERKNSt7__cxx1112basic_stringIcSt11char_traitsIcESaIcEEEPNS_13LockMapStripeEPNS_7LockMapEPNS_3EnvE
librocksdb.so.5.4:_ZN7rocksdb18TransactionLockMgrC1EPNS_13TransactionDBEmlSt10shared_ptrINS_25TransactionDBMutexFactoryEE
librocksdb.so.5.4:_ZN7rocksdb18TransactionLockMgrC2EPNS_13TransactionDBEmlSt10shared_ptrINS_25TransactionDBMutexFactoryEE
librocksdb.so.5.4:_ZN7rocksdb18TransactionLockMgrD1Ev
librocksdb.so.5.4:_ZN7rocksdb18TransactionLockMgrD2Ev
librocksdb.so.5.4:_ZN7rocksdb18VersionStorageInfo12SetFinalizedEv
librocksdb.so.5.4:_ZN7rocksdb18VersionStorageInfo14OverlapInLevelEiPKNS_5SliceES3_
librocksdb.so.5.4:_ZN7rocksdb18VersionStorageInfo18CalculateBaseBytesERKNS_18ImmutableCFOptionsERKNS_16MutableCFOptionsE
librocksdb.so.5.4:_ZN7rocksdb18VersionStorageInfo18RemoveCurrentStatsEPNS_12FileMetaDataE
librocksdb.so.5.4:_ZN7rocksdb18VersionStorageInfo22ComputeCompactionScoreERKNS_18ImmutableCFOptionsERKNS_16MutableCFOptionsE
librocksdb.so.5.4:_ZN7rocksdb18VersionStorageInfo22UpdateAccumulatedStatsEPNS_12FileMetaDataE
librocksdb.so.5.4:_ZN7rocksdb18VersionStorageInfo23ComputeCompensatedSizesEv
librocksdb.so.5.4:_ZN7rocksdb18VersionStorageInfo23GenerateLevelFilesBriefEv
librocksdb.so.5.4:_ZN7rocksdb18VersionStorageInfo23UpdateNumNonEmptyLevelsEv
librocksdb.so.5.4:_ZN7rocksdb18VersionStorageInfo26UpdateFilesByCompactionPriENS_13CompactionPriE
librocksdb.so.5.4:_ZN7rocksdb18VersionStorageInfo28GenerateLevel0NonOverlappingEv
librocksdb.so.5.4:_ZN7rocksdb18VersionStorageInfo28MaxNextLevelOverlappingBytesEv
librocksdb.so.5.4:_ZN7rocksdb18VersionStorageInfo29EstimateCompactionBytesNeededERKNS_16MutableCFOptionsE
librocksdb.so.5.4:_ZN7rocksdb18VersionStorageInfo31ComputeFilesMarkedForCompactionEv
librocksdb.so.5.4:_ZN7rocksdb18VersionStorageInfo7AddFileEiPNS_12FileMetaDataEPNS_6LoggerE
librocksdb.so.5.4:_ZN7rocksdb18VersionStorageInfoC1EPKNS_21InternalKeyComparatorEPKNS_10ComparatorEiNS_15CompactionStyleEPS0_b
librocksdb.so.5.4:_ZN7rocksdb18VersionStorageInfoC2EPKNS_21InternalKeyComparatorEPKNS_10ComparatorEiNS_15CompactionStyleEPS0_b
librocksdb.so.5.4:_ZN7rocksdb18VersionStorageInfoD1Ev
librocksdb.so.5.4:_ZN7rocksdb18VersionStorageInfoD2Ev
librocksdb.so.5.4:_ZN7rocksdb18WritableFileWriter11WriteDirectEv
librocksdb.so.5.4:_ZN7rocksdb18WritableFileWriter12RequestTokenEmb
librocksdb.so.5.4:_ZN7rocksdb18WritableFileWriter12SyncInternalEb
librocksdb.so.5.4:_ZN7rocksdb18WritableFileWriter13WriteBufferedEPKcm
librocksdb.so.5.4:_ZN7rocksdb18WritableFileWriter16SyncWithoutFlushEb
librocksdb.so.5.4:_ZN7rocksdb18WritableFileWriter4SyncEb
librocksdb.so.5.4:_ZN7rocksdb18WritableFileWriter5CloseEv
librocksdb.so.5.4:_ZN7rocksdb18WritableFileWriter5FlushEv
librocksdb.so.5.4:_ZN7rocksdb18WritableFileWriter6AppendERKNS_5SliceE
librocksdb.so.5.4:_ZN7rocksdb18WritableFileWriter9RangeSyncEmm
librocksdb.so.5.4:_ZN7rocksdb18WriteBatchInternal10InsertIntoEPKNS_10WriteBatchEPNS_21ColumnFamilyMemTablesEPNS_14FlushSchedulerEbmPNS_2DBEbPmPb
librocksdb.so.5.4:_ZN7rocksdb18WriteBatchInternal10InsertIntoEPNS_11WriteThread6WriterEPNS_21ColumnFamilyMemTablesEPNS_14FlushSchedulerEbmPNS_2DBEb
librocksdb.so.5.4:_ZN7rocksdb18WriteBatchInternal10InsertIntoERKNS_10autovectorIPNS_11WriteThread6WriterELm8EEEmPNS_21ColumnFamilyMemTablesEPNS_14FlushSchedulerEbmPNS_2DBEb
librocksdb.so.5.4:_ZN7rocksdb18WriteBatchInternal10InsertNoopEPNS_10WriteBatchE
librocksdb.so.5.4:_ZN7rocksdb18WriteBatchInternal10MarkCommitEPNS_10WriteBatchERKNS_5SliceE
librocksdb.so.5.4:_ZN7rocksdb18WriteBatchInternal11DeleteRangeEPNS_10WriteBatchEjRKNS_10SlicePartsES5_
librocksdb.so.5.4:_ZN7rocksdb18WriteBatchInternal11DeleteRangeEPNS_10WriteBatchEjRKNS_5SliceES5_
librocksdb.so.5.4:_ZN7rocksdb18WriteBatchInternal11SetContentsEPNS_10WriteBatchERKNS_5SliceE
librocksdb.so.5.4:_ZN7rocksdb18WriteBatchInternal11SetSequenceEPNS_10WriteBatchEm
librocksdb.so.5.4:_ZN7rocksdb18WriteBatchInternal12MarkRollbackEPNS_10WriteBatchERKNS_5SliceE
librocksdb.so.5.4:_ZN7rocksdb18WriteBatchInternal12SingleDeleteEPNS_10WriteBatchEjRKNS_10SlicePartsE
librocksdb.so.5.4:_ZN7rocksdb18WriteBatchInternal12SingleDeleteEPNS_10WriteBatchEjRKNS_5SliceE
librocksdb.so.5.4:_ZN7rocksdb18WriteBatchInternal14GetFirstOffsetEPNS_10WriteBatchE
librocksdb.so.5.4:_ZN7rocksdb18WriteBatchInternal14MarkEndPrepareEPNS_10WriteBatchERKNS_5SliceE
librocksdb.so.5.4:_ZN7rocksdb18WriteBatchInternal16AppendedByteSizeEmm
librocksdb.so.5.4:_ZN7rocksdb18WriteBatchInternal3PutEPNS_10WriteBatchEjRKNS_10SlicePartsES5_
librocksdb.so.5.4:_ZN7rocksdb18WriteBatchInternal3PutEPNS_10WriteBatchEjRKNS_5SliceES5_
librocksdb.so.5.4:_ZN7rocksdb18WriteBatchInternal5CountEPKNS_10WriteBatchE
librocksdb.so.5.4:_ZN7rocksdb18WriteBatchInternal5MergeEPNS_10WriteBatchEjRKNS_10SlicePartsES5_
librocksdb.so.5.4:_ZN7rocksdb18WriteBatchInternal5MergeEPNS_10WriteBatchEjRKNS_5SliceES5_
librocksdb.so.5.4:_ZN7rocksdb18WriteBatchInternal6AppendEPNS_10WriteBatchEPKS1_b
librocksdb.so.5.4:_ZN7rocksdb18WriteBatchInternal6DeleteEPNS_10WriteBatchEjRKNS_10SlicePartsE
librocksdb.so.5.4:_ZN7rocksdb18WriteBatchInternal6DeleteEPNS_10WriteBatchEjRKNS_5SliceE
librocksdb.so.5.4:_ZN7rocksdb18WriteBatchInternal8SequenceEPKNS_10WriteBatchE
librocksdb.so.5.4:_ZN7rocksdb18WriteBatchInternal8SetCountEPNS_10WriteBatchEi
librocksdb.so.5.4:_ZN7rocksdb18WriteableCacheFile10ReadBufferERKNS_19LogicalBlockAddressEPNS_5SliceES5_Pc
librocksdb.so.5.4:_ZN7rocksdb18WriteableCacheFile10ReadBufferERKNS_19LogicalBlockAddressEPc
librocksdb.so.5.4:_ZN7rocksdb18WriteableCacheFile12ClearBuffersEv
librocksdb.so.5.4:_ZN7rocksdb18WriteableCacheFile12ExpandBufferEm
librocksdb.so.5.4:_ZN7rocksdb18WriteableCacheFile14DispatchBufferEv
librocksdb.so.5.4:_ZN7rocksdb18WriteableCacheFile15BufferWriteDoneEv
librocksdb.so.5.4:_ZN7rocksdb18WriteableCacheFile22CloseAndOpenForReadingEv
librocksdb.so.5.4:_ZN7rocksdb18WriteableCacheFile5CloseEv
librocksdb.so.5.4:_ZN7rocksdb18WriteableCacheFile6AppendERKNS_5SliceES3_PNS_19LogicalBlockAddressE
librocksdb.so.5.4:_ZN7rocksdb18WriteableCacheFile6CreateEbb
librocksdb.so.5.4:_ZN7rocksdb18WriteableCacheFileD0Ev
librocksdb.so.5.4:_ZN7rocksdb18WriteableCacheFileD1Ev
librocksdb.so.5.4:_ZN7rocksdb18WriteableCacheFileD2Ev
librocksdb.so.5.4:_ZN7rocksdb19ArchivedLogFileNameERKNSt7__cxx1112basic_stringIcSt11char_traitsIcESaIcEEEm
librocksdb.so.5.4:_ZN7rocksdb19ColumnFamilyOptions11OldDefaultsEii
librocksdb.so.5.4:_ZN7rocksdb19ColumnFamilyOptions18OptimizeForSmallDbEv
librocksdb.so.5.4:_ZN7rocksdb19ColumnFamilyOptions22OptimizeForPointLookupEm
librocksdb.so.5.4:_ZN7rocksdb19ColumnFamilyOptions28OptimizeLevelStyleCompactionEm
librocksdb.so.5.4:_ZN7rocksdb19ColumnFamilyOptions32OptimizeUniversalStyleCompactionEm
librocksdb.so.5.4:_ZN7rocksdb19ColumnFamilyOptionsC1ERKNS_7OptionsE
librocksdb.so.5.4:_ZN7rocksdb19ColumnFamilyOptionsC1Ev
librocksdb.so.5.4:_ZN7rocksdb19ColumnFamilyOptionsC2ERKNS_7OptionsE
librocksdb.so.5.4:_ZN7rocksdb19ColumnFamilyOptionsC2Ev
librocksdb.so.5.4:_ZN7rocksdb19CuckooTableIterator10SeekToLastEv
librocksdb.so.5.4:_ZN7rocksdb19CuckooTableIterator11SeekForPrevERKNS_5SliceE
librocksdb.so.5.4:_ZN7rocksdb19CuckooTableIterator11SeekToFirstEv
librocksdb.so.5.4:_ZN7rocksdb19CuckooTableIterator12InitIfNeededEv
librocksdb.so.5.4:_ZN7rocksdb19CuckooTableIterator18PrepareKVAtCurrIdxEv
librocksdb.so.5.4:_ZN7rocksdb19CuckooTableIterator4NextEv
librocksdb.so.5.4:_ZN7rocksdb19CuckooTableIterator4PrevEv
librocksdb.so.5.4:_ZN7rocksdb19CuckooTableIterator4SeekERKNS_5SliceE
librocksdb.so.5.4:_ZN7rocksdb19CuckooTableIteratorC1EPNS_17CuckooTableReaderE
librocksdb.so.5.4:_ZN7rocksdb19CuckooTableIteratorC2EPNS_17CuckooTableReaderE
librocksdb.so.5.4:_ZN7rocksdb19DBFileDumperCommand4HelpERNSt7__cxx1112basic_stringIcSt11char_traitsIcESaIcEEE
librocksdb.so.5.4:_ZN7rocksdb19DBFileDumperCommand9DoCommandEv
librocksdb.so.5.4:_ZN7rocksdb19DBFileDumperCommandC1ERKSt6vectorINSt7__cxx1112basic_stringIcSt11char_traitsIcESaIcEEESaIS7_EERKSt3mapIS7_S7_St4lessIS7_ESaISt4pairIKS7_S7_EEESB_
librocksdb.so.5.4:_ZN7rocksdb19DBFileDumperCommandC2ERKSt6vectorINSt7__cxx1112basic_stringIcSt11char_traitsIcESaIcEEESaIS7_EERKSt3mapIS7_S7_St4lessIS7_ESaISt4pairIKS7_S7_EEESB_
librocksdb.so.5.4:_ZN7rocksdb19GetCompressionFlushERKNS_18ImmutableCFOptionsERKNS_16MutableCFOptionsE
librocksdb.so.5.4:_ZN7rocksdb19GetDBOptionsFromMapERKNS_9DBOptionsERKSt13unordered_mapINSt7__cxx1112basic_stringIcSt11char_traitsIcESaIcEEES9_St4hashIS9_ESt8equal_toIS9_ESaISt4pairIKS9_S9_EEEPS0_b
librocksdb.so.5.4:_ZN7rocksdb19InstrumentedCondVar12WaitInternalEv
librocksdb.so.5.4:_ZN7rocksdb19InstrumentedCondVar17TimedWaitInternalEm
librocksdb.so.5.4:_ZN7rocksdb19InstrumentedCondVar4WaitEv
librocksdb.so.5.4:_ZN7rocksdb19InstrumentedCondVar9TimedWaitEm
librocksdb.so.5.4:_ZN7rocksdb19InternalDumpCommand4HelpERNSt7__cxx1112basic_stringIcSt11char_traitsIcESaIcEEE
librocksdb.so.5.4:_ZN7rocksdb19InternalDumpCommand9DoCommandEv
librocksdb.so.5.4:_ZN7rocksdb19InternalDumpCommandC1ERKSt6vectorINSt7__cxx1112basic_stringIcSt11char_traitsIcESaIcEEESaIS7_EERKSt3mapIS7_S7_St4lessIS7_ESaISt4pairIKS7_S7_EEESB_
librocksdb.so.5.4:_ZN7rocksdb19InternalDumpCommandC2ERKSt6vectorINSt7__cxx1112basic_stringIcSt11char_traitsIcESaIcEEESaIS7_EERKSt3mapIS7_S7_St4lessIS7_ESaISt4pairIKS7_S7_EEESB_
librocksdb.so.5.4:_ZN7rocksdb19JSONDocumentBuilder13WriteEndArrayEv
librocksdb.so.5.4:_ZN7rocksdb19JSONDocumentBuilder13WriteKeyValueERKNSt7__cxx1112basic_stringIcSt11char_traitsIcESaIcEEERKNS_12JSONDocumentE
librocksdb.so.5.4:_ZN7rocksdb19JSONDocumentBuilder14WriteEndObjectEv
librocksdb.so.5.4:_ZN7rocksdb19JSONDocumentBuilder15GetJSONDocumentEv
librocksdb.so.5.4:_ZN7rocksdb19JSONDocumentBuilder15WriteStartArrayEv
librocksdb.so.5.4:_ZN7rocksdb19JSONDocumentBuilder16WriteStartObjectEv
librocksdb.so.5.4:_ZN7rocksdb19JSONDocumentBuilder17WriteJSONDocumentERKNS_12JSONDocumentE
librocksdb.so.5.4:_ZN7rocksdb19JSONDocumentBuilder5ResetEv
librocksdb.so.5.4:_ZN7rocksdb19JSONDocumentBuilderC1EPN5fbson14FbsonOutStreamE
librocksdb.so.5.4:_ZN7rocksdb19JSONDocumentBuilderC1Ev
librocksdb.so.5.4:_ZN7rocksdb19JSONDocumentBuilderC2EPN5fbson14FbsonOutStreamE
librocksdb.so.5.4:_ZN7rocksdb19JSONDocumentBuilderC2Ev
librocksdb.so.5.4:_ZN7rocksdb19JSONDocumentBuilderD1Ev
librocksdb.so.5.4:_ZN7rocksdb19JSONDocumentBuilderD2Ev
librocksdb.so.5.4:_ZN7rocksdb19LoadOptionsFromFileERKNSt7__cxx1112basic_stringIcSt11char_traitsIcESaIcEEEPNS_3EnvEPNS_9DBOptionsEPSt6vectorINS_22ColumnFamilyDescriptorESaISD_EE
librocksdb.so.5.4:_ZN7rocksdb19ManifestDumpCommand4HelpERNSt7__cxx1112basic_stringIcSt11char_traitsIcESaIcEEE
librocksdb.so.5.4:_ZN7rocksdb19ManifestDumpCommand9DoCommandEv
librocksdb.so.5.4:_ZN7rocksdb19ManifestDumpCommandC1ERKSt6vectorINSt7__cxx1112basic_stringIcSt11char_traitsIcESaIcEEESaIS7_EERKSt3mapIS7_S7_St4lessIS7_ESaISt4pairIKS7_S7_EEESB_
librocksdb.so.5.4:_ZN7rocksdb19ManifestDumpCommandC2ERKSt6vectorINSt7__cxx1112basic_stringIcSt11char_traitsIcESaIcEEESaIS7_EERKSt3mapIS7_S7_St4lessIS7_ESaISt4pairIKS7_S7_EEESB_
librocksdb.so.5.4:_ZN7rocksdb19MemTableListVersion11AddMemTableEPNS_8MemTableE
librocksdb.so.5.4:_ZN7rocksdb19MemTableListVersion11GetFromListEPNSt7__cxx114listIPNS_8MemTableESaIS4_EEERKNS_9LookupKeyEPNS1_12basic_stringIcSt11char_traitsIcESaIcEEEPNS_6StatusEPNS_12MergeContextEPNS_18RangeDelAggregatorEPmRKNS_11ReadOptionsE
librocksdb.so.5.4:_ZN7rocksdb19MemTableListVersion11TrimHistoryEPNS_10autovectorIPNS_8MemTableELm8EEE
librocksdb.so.5.4:_ZN7rocksdb19MemTableListVersion12AddIteratorsERKNS_11ReadOptionsEPNS_20MergeIteratorBuilderE
librocksdb.so.5.4:_ZN7rocksdb19MemTableListVersion12AddIteratorsERKNS_11ReadOptionsEPSt6vectorIPNS_16InternalIteratorESaIS6_EEPNS_5ArenaE
librocksdb.so.5.4:_ZN7rocksdb19MemTableListVersion13UnrefMemTableEPNS_10autovectorIPNS_8MemTableELm8EEES3_
librocksdb.so.5.4:_ZN7rocksdb19MemTableListVersion14GetFromHistoryERKNS_9LookupKeyEPNSt7__cxx1112basic_stringIcSt11char_traitsIcESaIcEEEPNS_6StatusEPNS_12MergeContextEPNS_18RangeDelAggregatorEPmRKNS_11ReadOptionsE
librocksdb.so.5.4:_ZN7rocksdb19MemTableListVersion16ApproximateStatsERKNS_5SliceES3_
librocksdb.so.5.4:_ZN7rocksdb19MemTableListVersion26AddRangeTombstoneIteratorsERKNS_11ReadOptionsEPNS_5ArenaEPNS_18RangeDelAggregatorE
librocksdb.so.5.4:_ZN7rocksdb19MemTableListVersion3AddEPNS_8MemTableEPNS_10autovectorIS2_Lm8EEE
librocksdb.so.5.4:_ZN7rocksdb19MemTableListVersion3GetERKNS_9LookupKeyEPNSt7__cxx1112basic_stringIcSt11char_traitsIcESaIcEEEPNS_6StatusEPNS_12MergeContextEPNS_18RangeDelAggregatorEPmRKNS_11ReadOptionsE
librocksdb.so.5.4:_ZN7rocksdb19MemTableListVersion3RefEv
librocksdb.so.5.4:_ZN7rocksdb19MemTableListVersion5UnrefEPNS_10autovectorIPNS_8MemTableELm8EEE
librocksdb.so.5.4:_ZN7rocksdb19MemTableListVersion6RemoveEPNS_8MemTableEPNS_10autovectorIS2_Lm8EEE
librocksdb.so.5.4:_ZN7rocksdb19MemTableListVersionC1EPmPS0_
librocksdb.so.5.4:_ZN7rocksdb19MemTableListVersionC1EPmi
librocksdb.so.5.4:_ZN7rocksdb19MemTableListVersionC2EPmPS0_
librocksdb.so.5.4:_ZN7rocksdb19MemTableListVersionC2EPmi
librocksdb.so.5.4:_ZN7rocksdb19MergeOutputIterator11SeekToFirstEv
librocksdb.so.5.4:_ZN7rocksdb19MergeOutputIterator4NextEv
librocksdb.so.5.4:_ZN7rocksdb19MergeOutputIteratorC1EPKNS_11MergeHelperE
librocksdb.so.5.4:_ZN7rocksdb19MergeOutputIteratorC2EPKNS_11MergeHelperE
librocksdb.so.5.4:_ZN7rocksdb19NewTwoLevelIteratorEPNS_21TwoLevelIteratorStateEPNS_16InternalIteratorEPNS_5ArenaEb
librocksdb.so.5.4:_ZN7rocksdb19NumberToHumanStringB5cxx11El
librocksdb.so.5.4:_ZN7rocksdb19PackSequenceAndTypeEmNS_9ValueTypeE
librocksdb.so.5.4:_ZN7rocksdb19PersistentCacheTier10PrintStatsB5cxx11Ev
librocksdb.so.5.4:_ZN7rocksdb19PersistentCacheTier4OpenEv
librocksdb.so.5.4:_ZN7rocksdb19PersistentCacheTier5CloseEv
librocksdb.so.5.4:_ZN7rocksdb19PersistentCacheTier5EraseERKNS_5SliceE
librocksdb.so.5.4:_ZN7rocksdb19PersistentCacheTier5StatsB5cxx11Ev
librocksdb.so.5.4:_ZN7rocksdb19PersistentCacheTier7ReserveEm
librocksdb.so.5.4:_ZN7rocksdb19PosixSequentialFile14PositionedReadEmmPNS_5SliceEPc
librocksdb.so.5.4:_ZN7rocksdb19PosixSequentialFile15InvalidateCacheEmm
librocksdb.so.5.4:_ZN7rocksdb19PosixSequentialFile4ReadEmPNS_5SliceEPc
librocksdb.so.5.4:_ZN7rocksdb19PosixSequentialFile4SkipEm
librocksdb.so.5.4:_ZN7rocksdb19PosixSequentialFileC1ERKNSt7__cxx1112basic_stringIcSt11char_traitsIcESaIcEEEP8_IO_FILEiRKNS_10EnvOptionsE
librocksdb.so.5.4:_ZN7rocksdb19PosixSequentialFileC2ERKNSt7__cxx1112basic_stringIcSt11char_traitsIcESaIcEEEP8_IO_FILEiRKNS_10EnvOptionsE
librocksdb.so.5.4:_ZN7rocksdb19PosixSequentialFileD0Ev
librocksdb.so.5.4:_ZN7rocksdb19PosixSequentialFileD1Ev
librocksdb.so.5.4:_ZN7rocksdb19PosixSequentialFileD2Ev
librocksdb.so.5.4:_ZN7rocksdb19ReadTablePropertiesEPNS_22RandomAccessFileReaderEmmRKNS_18ImmutableCFOptionsEPPNS_15TablePropertiesE
librocksdb.so.5.4:_ZN7rocksdb19SeekToRangeDelBlockEPNS_16InternalIteratorEPbPNS_11BlockHandleE
librocksdb.so.5.4:_ZN7rocksdb19TempOptionsFileNameERKNSt7__cxx1112basic_stringIcSt11char_traitsIcESaIcEEEm
librocksdb.so.5.4:_ZN7rocksdb19ThreadStatusUpdater13GetThreadListEPSt6vectorINS_12ThreadStatusESaIS2_EE
librocksdb.so.5.4:_ZN7rocksdb19ThreadStatusUpdater14RegisterThreadENS_12ThreadStatus10ThreadTypeEm
librocksdb.so.5.4:_ZN7rocksdb19ThreadStatusUpdater14SetThreadStateENS_12ThreadStatus9StateTypeE
librocksdb.so.5.4:_ZN7rocksdb19ThreadStatusUpdater16ClearThreadStateEv
librocksdb.so.5.4:_ZN7rocksdb19ThreadStatusUpdater16UnregisterThreadEv
librocksdb.so.5.4:_ZN7rocksdb19ThreadStatusUpdater17EraseDatabaseInfoEPKv
librocksdb.so.5.4:_ZN7rocksdb19ThreadStatusUpdater17ResetThreadStatusEv
librocksdb.so.5.4:_ZN7rocksdb19ThreadStatusUpdater18SetThreadOperationENS_12ThreadStatus13OperationTypeE
librocksdb.so.5.4:_ZN7rocksdb19ThreadStatusUpdater19NewColumnFamilyInfoEPKvRKNSt7__cxx1112basic_stringIcSt11char_traitsIcESaIcEEES2_SA_
librocksdb.so.5.4:_ZN7rocksdb19ThreadStatusUpdater20ClearThreadOperationEv
librocksdb.so.5.4:_ZN7rocksdb19ThreadStatusUpdater20GetLocalThreadStatusEv
librocksdb.so.5.4:_ZN7rocksdb19ThreadStatusUpdater21EraseColumnFamilyInfoEPKv
librocksdb.so.5.4:_ZN7rocksdb19ThreadStatusUpdater21SetOperationStartTimeEm
librocksdb.so.5.4:_ZN7rocksdb19ThreadStatusUpdater22GetColumnFamilyInfoKeyEv
librocksdb.so.5.4:_ZN7rocksdb19ThreadStatusUpdater22SetColumnFamilyInfoKeyEPKv
librocksdb.so.5.4:_ZN7rocksdb19ThreadStatusUpdater23SetThreadOperationStageENS_12ThreadStatus14OperationStageE
librocksdb.so.5.4:_ZN7rocksdb19ThreadStatusUpdater26SetThreadOperationPropertyEim
librocksdb.so.5.4:_ZN7rocksdb19ThreadStatusUpdater30ClearThreadOperationPropertiesEv
librocksdb.so.5.4:_ZN7rocksdb19ThreadStatusUpdater31IncreaseThreadOperationPropertyEim
librocksdb.so.5.4:_ZN7rocksdb19TransactionBaseImpl10PutLogDataERKNS_5SliceE
librocksdb.so.5.4:_ZN7rocksdb19TransactionBaseImpl11GetIteratorERKNS_11ReadOptionsE
librocksdb.so.5.4:_ZN7rocksdb19TransactionBaseImpl11GetIteratorERKNS_11ReadOptionsEPNS_18ColumnFamilyHandleE
librocksdb.so.5.4:_ZN7rocksdb19TransactionBaseImpl11SetSnapshotEv
librocksdb.so.5.4:_ZN7rocksdb19TransactionBaseImpl12GetForUpdateERKNS_11ReadOptionsEPNS_18ColumnFamilyHandleERKNS_5SliceEPNSt7__cxx1112basic_stringIcSt11char_traitsIcESaIcEEEb
librocksdb.so.5.4:_ZN7rocksdb19TransactionBaseImpl12PutUntrackedEPNS_18ColumnFamilyHandleERKNS_10SlicePartsES5_
librocksdb.so.5.4:_ZN7rocksdb19TransactionBaseImpl12PutUntrackedEPNS_18ColumnFamilyHandleERKNS_5SliceES5_
librocksdb.so.5.4:_ZN7rocksdb19TransactionBaseImpl12ReinitializeEPNS_2DBERKNS_12WriteOptionsE
librocksdb.so.5.4:_ZN7rocksdb19TransactionBaseImpl12SetSavePointEv
librocksdb.so.5.4:_ZN7rocksdb19TransactionBaseImpl12SingleDeleteEPNS_18ColumnFamilyHandleERKNS_10SlicePartsE
librocksdb.so.5.4:_ZN7rocksdb19TransactionBaseImpl12SingleDeleteEPNS_18ColumnFamilyHandleERKNS_5SliceE
librocksdb.so.5.4:_ZN7rocksdb19TransactionBaseImpl13GetWriteBatchEv
librocksdb.so.5.4:_ZN7rocksdb19TransactionBaseImpl14MergeUntrackedEPNS_18ColumnFamilyHandleERKNS_5SliceES5_
librocksdb.so.5.4:_ZN7rocksdb19TransactionBaseImpl15DeleteUntrackedEPNS_18ColumnFamilyHandleERKNS_10SlicePartsE
librocksdb.so.5.4:_ZN7rocksdb19TransactionBaseImpl15DeleteUntrackedEPNS_18ColumnFamilyHandleERKNS_5SliceE
librocksdb.so.5.4:_ZN7rocksdb19TransactionBaseImpl15ReleaseSnapshotEPKNS_8SnapshotEPNS_2DBE
librocksdb.so.5.4:_ZN7rocksdb19TransactionBaseImpl16GetBatchForWriteEv
librocksdb.so.5.4:_ZN7rocksdb19TransactionBaseImpl16UndoGetForUpdateEPNS_18ColumnFamilyHandleERKNS_5SliceE
librocksdb.so.5.4:_ZN7rocksdb19TransactionBaseImpl17MultiGetForUpdateERKNS_11ReadOptionsERKSt6vectorIPNS_18ColumnFamilyHandleESaIS6_EERKS4_INS_5SliceESaISB_EEPS4_INSt7__cxx1112basic_stringIcSt11char_traitsIcESaIcEEESaISL_EE
librocksdb.so.5.4:_ZN7rocksdb19TransactionBaseImpl19RollbackToSavePointEv
librocksdb.so.5.4:_ZN7rocksdb19TransactionBaseImpl19SetSnapshotIfNeededEv
librocksdb.so.5.4:_ZN7rocksdb19TransactionBaseImpl19SetSnapshotInternalEPKNS_8SnapshotE
librocksdb.so.5.4:_ZN7rocksdb19TransactionBaseImpl21RebuildFromWriteBatchEPNS_10WriteBatchE
librocksdb.so.5.4:_ZN7rocksdb19TransactionBaseImpl23GetCommitTimeWriteBatchEv
librocksdb.so.5.4:_ZN7rocksdb19TransactionBaseImpl26SetSnapshotOnNextOperationESt10shared_ptrINS_19TransactionNotifierEE
librocksdb.so.5.4:_ZN7rocksdb19TransactionBaseImpl28GetTrackedKeysSinceSavePointB5cxx11Ev
librocksdb.so.5.4:_ZN7rocksdb19TransactionBaseImpl3GetERKNS_11ReadOptionsEPNS_18ColumnFamilyHandleERKNS_5SliceEPNSt7__cxx1112basic_stringIcSt11char_traitsIcESaIcEEE
librocksdb.so.5.4:_ZN7rocksdb19TransactionBaseImpl3PutEPNS_18ColumnFamilyHandleERKNS_10SlicePartsES5_
librocksdb.so.5.4:_ZN7rocksdb19TransactionBaseImpl3PutEPNS_18ColumnFamilyHandleERKNS_5SliceES5_
librocksdb.so.5.4:_ZN7rocksdb19TransactionBaseImpl5ClearEv
librocksdb.so.5.4:_ZN7rocksdb19TransactionBaseImpl5MergeEPNS_18ColumnFamilyHandleERKNS_5SliceES5_
librocksdb.so.5.4:_ZN7rocksdb19TransactionBaseImpl6DeleteEPNS_18ColumnFamilyHandleERKNS_10SlicePartsE
librocksdb.so.5.4:_ZN7rocksdb19TransactionBaseImpl6DeleteEPNS_18ColumnFamilyHandleERKNS_5SliceE
librocksdb.so.5.4:_ZN7rocksdb19TransactionBaseImpl7TryLockEPNS_18ColumnFamilyHandleERKNS_10SlicePartsEbbb
librocksdb.so.5.4:_ZN7rocksdb19TransactionBaseImpl8MultiGetERKNS_11ReadOptionsERKSt6vectorIPNS_18ColumnFamilyHandleESaIS6_EERKS4_INS_5SliceESaISB_EEPS4_INSt7__cxx1112basic_stringIcSt11char_traitsIcESaIcEEESaISL_EE
librocksdb.so.5.4:_ZN7rocksdb19TransactionBaseImpl8TrackKeyEPSt13unordered_mapIjS1_INSt7__cxx1112basic_stringIcSt11char_traitsIcESaIcEEENS_21TransactionKeyMapInfoESt4hashIS7_ESt8equal_toIS7_ESaISt4pairIKS7_S8_EEES9_IjESB_IjESaISD_IKjSH_EEEjRSE_mbb
librocksdb.so.5.4:_ZN7rocksdb19TransactionBaseImpl8TrackKeyEjRKNSt7__cxx1112basic_stringIcSt11char_traitsIcESaIcEEEmbb
librocksdb.so.5.4:_ZN7rocksdb19TransactionBaseImplC1EPNS_2DBERKNS_12WriteOptionsE
librocksdb.so.5.4:_ZN7rocksdb19TransactionBaseImplC2EPNS_2DBERKNS_12WriteOptionsE
librocksdb.so.5.4:_ZN7rocksdb19TransactionBaseImplD0Ev
librocksdb.so.5.4:_ZN7rocksdb19TransactionBaseImplD1Ev
librocksdb.so.5.4:_ZN7rocksdb19TransactionBaseImplD2Ev
librocksdb.so.5.4:_ZN7rocksdb19WriteBatchWithIndex10PutLogDataERKNS_5SliceE
librocksdb.so.5.4:_ZN7rocksdb19WriteBatchWithIndex11DeleteRangeEPNS_18ColumnFamilyHandleERKNS_5SliceES5_
librocksdb.so.5.4:_ZN7rocksdb19WriteBatchWithIndex11DeleteRangeERKNS_5SliceES3_
librocksdb.so.5.4:_ZN7rocksdb19WriteBatchWithIndex11NewIteratorEPNS_18ColumnFamilyHandleE
librocksdb.so.5.4:_ZN7rocksdb19WriteBatchWithIndex11NewIteratorEv
librocksdb.so.5.4:_ZN7rocksdb19WriteBatchWithIndex11SetMaxBytesEm
librocksdb.so.5.4:_ZN7rocksdb19WriteBatchWithIndex12GetFromBatchEPNS_18ColumnFamilyHandleERKNS_9DBOptionsERKNS_5SliceEPNSt7__cxx1112basic_stringIcSt11char_traitsIcESaIcEEE
librocksdb.so.5.4:_ZN7rocksdb19WriteBatchWithIndex12SetSavePointEv
librocksdb.so.5.4:_ZN7rocksdb19WriteBatchWithIndex12SingleDeleteEPNS_18ColumnFamilyHandleERKNS_5SliceE
librocksdb.so.5.4:_ZN7rocksdb19WriteBatchWithIndex12SingleDeleteERKNS_5SliceE
librocksdb.so.5.4:_ZN7rocksdb19WriteBatchWithIndex13GetWriteBatchEv
librocksdb.so.5.4:_ZN7rocksdb19WriteBatchWithIndex17GetFromBatchAndDBEPNS_2DBERKNS_11ReadOptionsEPNS_18ColumnFamilyHandleERKNS_5SliceEPNSt7__cxx1112basic_stringIcSt11char_traitsIcESaIcEEE
librocksdb.so.5.4:_ZN7rocksdb19WriteBatchWithIndex17GetFromBatchAndDBEPNS_2DBERKNS_11ReadOptionsERKNS_5SliceEPNSt7__cxx1112basic_stringIcSt11char_traitsIcESaIcEEE
librocksdb.so.5.4:_ZN7rocksdb19WriteBatchWithIndex19NewIteratorWithBaseEPNS_18ColumnFamilyHandleEPNS_8IteratorE
librocksdb.so.5.4:_ZN7rocksdb19WriteBatchWithIndex19NewIteratorWithBaseEPNS_8IteratorE
librocksdb.so.5.4:_ZN7rocksdb19WriteBatchWithIndex19RollbackToSavePointEv
librocksdb.so.5.4:_ZN7rocksdb19WriteBatchWithIndex3PutEPNS_18ColumnFamilyHandleERKNS_5SliceES5_
librocksdb.so.5.4:_ZN7rocksdb19WriteBatchWithIndex3PutERKNS_5SliceES3_
librocksdb.so.5.4:_ZN7rocksdb19WriteBatchWithIndex3Rep10ClearIndexEv
librocksdb.so.5.4:_ZN7rocksdb19WriteBatchWithIndex3Rep11AddNewEntryEj
librocksdb.so.5.4:_ZN7rocksdb19WriteBatchWithIndex3Rep12ReBuildIndexEv
librocksdb.so.5.4:_ZN7rocksdb19WriteBatchWithIndex3Rep16AddOrUpdateIndexEPNS_18ColumnFamilyHandleERKNS_5SliceE
librocksdb.so.5.4:_ZN7rocksdb19WriteBatchWithIndex3Rep16AddOrUpdateIndexERKNS_5SliceE
librocksdb.so.5.4:_ZN7rocksdb19WriteBatchWithIndex3Rep19UpdateExistingEntryEPNS_18ColumnFamilyHandleERKNS_5SliceE
librocksdb.so.5.4:_ZN7rocksdb19WriteBatchWithIndex3Rep27UpdateExistingEntryWithCfIdEjRKNS_5SliceE
librocksdb.so.5.4:_ZN7rocksdb19WriteBatchWithIndex3Rep5ClearEv
librocksdb.so.5.4:_ZN7rocksdb19WriteBatchWithIndex5ClearEv
librocksdb.so.5.4:_ZN7rocksdb19WriteBatchWithIndex5MergeEPNS_18ColumnFamilyHandleERKNS_5SliceES5_
librocksdb.so.5.4:_ZN7rocksdb19WriteBatchWithIndex5MergeERKNS_5SliceES3_
librocksdb.so.5.4:_ZN7rocksdb19WriteBatchWithIndex6DeleteEPNS_18ColumnFamilyHandleERKNS_5SliceE
librocksdb.so.5.4:_ZN7rocksdb19WriteBatchWithIndex6DeleteERKNS_5SliceE
librocksdb.so.5.4:_ZN7rocksdb19WriteBatchWithIndexC1EPKNS_10ComparatorEmbm
librocksdb.so.5.4:_ZN7rocksdb19WriteBatchWithIndexC2EPKNS_10ComparatorEmbm
librocksdb.so.5.4:_ZN7rocksdb19WriteBatchWithIndexD0Ev
librocksdb.so.5.4:_ZN7rocksdb19WriteBatchWithIndexD1Ev
librocksdb.so.5.4:_ZN7rocksdb19WriteBatchWithIndexD2Ev
librocksdb.so.5.4:_ZN7rocksdb19replayGetContextLogERKNS_5SliceES2_PNS_10GetContextE
librocksdb.so.5.4:_ZN7rocksdb20AdaptiveTableFactoryC1ESt10shared_ptrINS_12TableFactoryEES3_S3_S3_
librocksdb.so.5.4:_ZN7rocksdb20AdaptiveTableFactoryC2ESt10shared_ptrINS_12TableFactoryEES3_S3_S3_
librocksdb.so.5.4:_ZN7rocksdb20BackupEngineReadOnly4OpenEPNS_3EnvERKNS_19BackupableDBOptionsEPPS0_
librocksdb.so.5.4:_ZN7rocksdb20ConsumeDecimalNumberEPNS_5SliceEPm
librocksdb.so.5.4:_ZN7rocksdb20FIFOCompactionPicker12CompactRangeERKNSt7__cxx1112basic_stringIcSt11char_traitsIcESaIcEEERKNS_16MutableCFOptionsEPNS_18VersionStorageInfoEiijPKNS_11InternalKeyESG_PPSE_Pb
librocksdb.so.5.4:_ZN7rocksdb20FIFOCompactionPicker14PickCompactionERKNSt7__cxx1112basic_stringIcSt11char_traitsIcESaIcEEERKNS_16MutableCFOptionsEPNS_18VersionStorageInfoEPNS_9LogBufferE
librocksdb.so.5.4:_ZN7rocksdb20GetOptionsFromStringERKNS_7OptionsERKNSt7__cxx1112basic_stringIcSt11char_traitsIcESaIcEEEPS0_
librocksdb.so.5.4:_ZN7rocksdb20HashCuckooRepFactory17CreateMemTableRepERKNS_11MemTableRep13KeyComparatorEPNS_17MemTableAllocatorEPKNS_14SliceTransformEPNS_6LoggerE
librocksdb.so.5.4:_ZN7rocksdb20MergeIteratorBuilder11AddIteratorEPNS_16InternalIteratorE
librocksdb.so.5.4:_ZN7rocksdb20MergeIteratorBuilder6FinishEv
librocksdb.so.5.4:_ZN7rocksdb20MergeIteratorBuilderC1EPKNS_10ComparatorEPNS_5ArenaEb
librocksdb.so.5.4:_ZN7rocksdb20MergeIteratorBuilderC2EPKNS_10ComparatorEPNS_5ArenaEb
librocksdb.so.5.4:_ZN7rocksdb20NewBloomFilterPolicyEib
librocksdb.so.5.4:_ZN7rocksdb20NewPlainTableFactoryERKNS_17PlainTableOptionsE
librocksdb.so.5.4:_ZN7rocksdb20NewWritableCacheFileEPNS_3EnvERKNSt7__cxx1112basic_stringIcSt11char_traitsIcESaIcEEEPSt10unique_ptrINS_12WritableFileESt14default_deleteISB_EEb
librocksdb.so.5.4:_ZN7rocksdb20PlainTableFileReader11ReadNonMmapEjjPNS_5SliceE
librocksdb.so.5.4:_ZN7rocksdb20PlainTableFileReader13GetFromBufferEPNS0_6BufferEjj
librocksdb.so.5.4:_ZN7rocksdb20PlainTableFileReader19ReadVarint32NonMmapEjPjS1_
librocksdb.so.5.4:_ZN7rocksdb20PlainTableKeyDecoder14NextKeyNoValueEjPNS_17ParsedInternalKeyEPNS_5SliceEPjPb
librocksdb.so.5.4:_ZN7rocksdb20PlainTableKeyDecoder15ReadInternalKeyEjjPNS_17ParsedInternalKeyEPjPbPNS_5SliceE
librocksdb.so.5.4:_ZN7rocksdb20PlainTableKeyDecoder20NextPlainEncodingKeyEjPNS_17ParsedInternalKeyEPNS_5SliceEPjPb
librocksdb.so.5.4:_ZN7rocksdb20PlainTableKeyDecoder21NextPrefixEncodingKeyEjPNS_17ParsedInternalKeyEPNS_5SliceEPjPb
librocksdb.so.5.4:_ZN7rocksdb20PlainTableKeyDecoder7NextKeyEjPNS_17ParsedInternalKeyEPNS_5SliceES4_PjPb
librocksdb.so.5.4:_ZN7rocksdb20PlainTableKeyEncoder9AppendKeyERKNS_5SliceEPNS_18WritableFileWriterEPmPcS6_
librocksdb.so.5.4:_ZN7rocksdb20PropertyBlockBuilder16AddTablePropertyERKNS_15TablePropertiesE
librocksdb.so.5.4:_ZN7rocksdb20PropertyBlockBuilder3AddERKNSt7__cxx1112basic_stringIcSt11char_traitsIcESaIcEEES8_
librocksdb.so.5.4:_ZN7rocksdb20PropertyBlockBuilder3AddERKNSt7__cxx1112basic_stringIcSt11char_traitsIcESaIcEEEm
librocksdb.so.5.4:_ZN7rocksdb20PropertyBlockBuilder3AddERKSt3mapINSt7__cxx1112basic_stringIcSt11char_traitsIcESaIcEEES7_St4lessIS7_ESaISt4pairIKS7_S7_EEE
librocksdb.so.5.4:_ZN7rocksdb20PropertyBlockBuilder6FinishEv
librocksdb.so.5.4:_ZN7rocksdb20PropertyBlockBuilderC1Ev
librocksdb.so.5.4:_ZN7rocksdb20PropertyBlockBuilderC2Ev
librocksdb.so.5.4:_ZN7rocksdb20RocksDBOptionsParser10EndSectionENS_13OptionSectionERKNSt7__cxx1112basic_stringIcSt11char_traitsIcESaIcEEES9_RKSt13unordered_mapIS7_S7_St4hashIS7_ESt8equal_toIS7_ESaISt4pairIS8_S7_EEE
librocksdb.so.5.4:_ZN7rocksdb20RocksDBOptionsParser12CheckSectionENS_13OptionSectionERKNSt7__cxx1112basic_stringIcSt11char_traitsIcESaIcEEEi
librocksdb.so.5.4:_ZN7rocksdb20RocksDBOptionsParser12ParseSectionEPNS_13OptionSectionEPNSt7__cxx1112basic_stringIcSt11char_traitsIcESaIcEEES9_RKS8_i
librocksdb.so.5.4:_ZN7rocksdb20RocksDBOptionsParser13ValidityCheckEv
librocksdb.so.5.4:_ZN7rocksdb20RocksDBOptionsParser14ParseStatementEPNSt7__cxx1112basic_stringIcSt11char_traitsIcESaIcEEES7_RKS6_i
librocksdb.so.5.4:_ZN7rocksdb20RocksDBOptionsParser15InvalidArgumentEiRKNSt7__cxx1112basic_stringIcSt11char_traitsIcESaIcEEE
librocksdb.so.5.4:_ZN7rocksdb20RocksDBOptionsParser15VerifyCFOptionsERKNS_19ColumnFamilyOptionsES3_PKSt13unordered_mapINSt7__cxx1112basic_stringIcSt11char_traitsIcESaIcEEESA_St4hashISA_ESt8equal_toISA_ESaISt4pairIKSA_SA_EEENS_23OptionsSanityCheckLevelE
librocksdb.so.5.4:_ZN7rocksdb20RocksDBOptionsParser15VerifyDBOptionsERKNS_9DBOptionsES3_PKSt13unordered_mapINSt7__cxx1112basic_stringIcSt11char_traitsIcESaIcEEESA_St4hashISA_ESt8equal_toISA_ESaISt4pairIKSA_SA_EEENS_23OptionsSanityCheckLevelE
librocksdb.so.5.4:_ZN7rocksdb20RocksDBOptionsParser18ParseVersionNumberERKNSt7__cxx1112basic_stringIcSt11char_traitsIcESaIcEEES8_iPi
librocksdb.so.5.4:_ZN7rocksdb20RocksDBOptionsParser18VerifyTableFactoryEPKNS_12TableFactoryES3_NS_23OptionsSanityCheckLevelE
librocksdb.so.5.4:_ZN7rocksdb20RocksDBOptionsParser20TrimAndRemoveCommentERKNSt7__cxx1112basic_stringIcSt11char_traitsIcESaIcEEEb
librocksdb.so.5.4:_ZN7rocksdb20RocksDBOptionsParser28VerifyBlockBasedTableFactoryEPKNS_22BlockBasedTableFactoryES3_NS_23OptionsSanityCheckLevelE
librocksdb.so.5.4:_ZN7rocksdb20RocksDBOptionsParser28VerifyRocksDBOptionsFromFileERKNS_9DBOptionsERKSt6vectorINSt7__cxx1112basic_stringIcSt11char_traitsIcESaIcEEESaISA_EERKS4_INS_19ColumnFamilyOptionsESaISF_EERKSA_PNS_3EnvENS_23OptionsSanityCheckLevelE
librocksdb.so.5.4:_ZN7rocksdb20RocksDBOptionsParser5ParseERKNSt7__cxx1112basic_stringIcSt11char_traitsIcESaIcEEEPNS_3EnvE
librocksdb.so.5.4:_ZN7rocksdb20RocksDBOptionsParser5ResetEv
librocksdb.so.5.4:_ZN7rocksdb20RocksDBOptionsParser9IsSectionERKNSt7__cxx1112basic_stringIcSt11char_traitsIcESaIcEEE
librocksdb.so.5.4:_ZN7rocksdb20RocksDBOptionsParserC1Ev
librocksdb.so.5.4:_ZN7rocksdb20RocksDBOptionsParserC2Ev
librocksdb.so.5.4:_ZN7rocksdb20SequentialFileReader4ReadEmPNS_5SliceEPc
librocksdb.so.5.4:_ZN7rocksdb20SequentialFileReader4SkipEm
librocksdb.so.5.4:_ZN7rocksdb20StringAppendOperatorC1Ec
librocksdb.so.5.4:_ZN7rocksdb20StringAppendOperatorC2Ec
librocksdb.so.5.4:_ZN7rocksdb20UnescapeOptionStringERKNSt7__cxx1112basic_stringIcSt11char_traitsIcESaIcEEE
librocksdb.so.5.4:_ZN7rocksdb21AppendEscapedStringToEPNSt7__cxx1112basic_stringIcSt11char_traitsIcESaIcEEERKNS_5SliceE
librocksdb.so.5.4:_ZN7rocksdb21FullFilterBlockReader11KeyMayMatchERKNS_5SliceEmbPS2_
librocksdb.so.5.4:_ZN7rocksdb21FullFilterBlockReader14PrefixMayMatchERKNS_5SliceEmbPS2_
librocksdb.so.5.4:_ZN7rocksdb21FullFilterBlockReader8MayMatchERKNS_5SliceE
librocksdb.so.5.4:_ZN7rocksdb21FullFilterBlockReaderC1EPKNS_14SliceTransformEbONS_13BlockContentsEPNS_16FilterBitsReaderEPNS_10StatisticsE
librocksdb.so.5.4:_ZN7rocksdb21FullFilterBlockReaderC1EPKNS_14SliceTransformEbRKNS_5SliceEPNS_16FilterBitsReaderEPNS_10StatisticsE
librocksdb.so.5.4:_ZN7rocksdb21FullFilterBlockReaderC2EPKNS_14SliceTransformEbONS_13BlockContentsEPNS_16FilterBitsReaderEPNS_10StatisticsE
librocksdb.so.5.4:_ZN7rocksdb21FullFilterBlockReaderC2EPKNS_14SliceTransformEbRKNS_5SliceEPNS_16FilterBitsReaderEPNS_10StatisticsE
librocksdb.so.5.4:_ZN7rocksdb21HistogramBucketMapperC1Ev
librocksdb.so.5.4:_ZN7rocksdb21HistogramBucketMapperC2Ev
librocksdb.so.5.4:_ZN7rocksdb21LevelCompactionPicker14PickCompactionERKNSt7__cxx1112basic_stringIcSt11char_traitsIcESaIcEEERKNS_16MutableCFOptionsEPNS_18VersionStorageInfoEPNS_9LogBufferE
librocksdb.so.5.4:_ZN7rocksdb21MultiplyCheckOverflowEmd
librocksdb.so.5.4:_ZN7rocksdb21NewCuckooTableFactoryERKNS_18CuckooTableOptionsE
librocksdb.so.5.4:_ZN7rocksdb21NewGenericRateLimiterElli
librocksdb.so.5.4:_ZN7rocksdb21OptionChangeMigrationENSt7__cxx1112basic_stringIcSt11char_traitsIcESaIcEEERKNS_7OptionsES8_
librocksdb.so.5.4:_ZN7rocksdb21PersistRocksDBOptionsERKNS_9DBOptionsERKSt6vectorINSt7__cxx1112basic_stringIcSt11char_traitsIcESaIcEEESaIS9_EERKS3_INS_19ColumnFamilyOptionsESaISE_EERKS9_PNS_3EnvE
librocksdb.so.5.4:_ZN7rocksdb21PersistentCacheHelper13InsertRawPageERKNS_22PersistentCacheOptionsERKNS_11BlockHandleEPKcm
librocksdb.so.5.4:_ZN7rocksdb21PersistentCacheHelper13LookupRawPageERKNS_22PersistentCacheOptionsERKNS_11BlockHandleEPSt10unique_ptrIA_cSt14default_deleteIS8_EEm
librocksdb.so.5.4:_ZN7rocksdb21PersistentCacheHelper22InsertUncompressedPageERKNS_22PersistentCacheOptionsERKNS_11BlockHandleERKNS_13BlockContentsE
librocksdb.so.5.4:_ZN7rocksdb21PersistentCacheHelper22LookupUncompressedPageERKNS_22PersistentCacheOptionsERKNS_11BlockHandleEPNS_13BlockContentsE
librocksdb.so.5.4:_ZN7rocksdb21PersistentTieredCache10PrintStatsB5cxx11Ev
librocksdb.so.5.4:_ZN7rocksdb21PersistentTieredCache12IsCompressedEv
librocksdb.so.5.4:_ZN7rocksdb21PersistentTieredCache4OpenEv
librocksdb.so.5.4:_ZN7rocksdb21PersistentTieredCache5CloseEv
librocksdb.so.5.4:_ZN7rocksdb21PersistentTieredCache5EraseERKNS_5SliceE
librocksdb.so.5.4:_ZN7rocksdb21PersistentTieredCache5StatsB5cxx11Ev
librocksdb.so.5.4:_ZN7rocksdb21PersistentTieredCache6InsertERKNS_5SliceEPKcm
librocksdb.so.5.4:_ZN7rocksdb21PersistentTieredCache6LookupERKNS_5SliceEPSt10unique_ptrIA_cSt14default_deleteIS5_EEPm
librocksdb.so.5.4:_ZN7rocksdb21PersistentTieredCache7AddTierERKSt10shared_ptrINS_19PersistentCacheTierEE
librocksdb.so.5.4:_ZN7rocksdb21PersistentTieredCacheD0Ev
librocksdb.so.5.4:_ZN7rocksdb21PersistentTieredCacheD1Ev
librocksdb.so.5.4:_ZN7rocksdb21PersistentTieredCacheD2Ev
librocksdb.so.5.4:_ZN7rocksdb21PosixMmapReadableFile15InvalidateCacheEmm
librocksdb.so.5.4:_ZN7rocksdb21PosixMmapReadableFileC1EiRKNSt7__cxx1112basic_stringIcSt11char_traitsIcESaIcEEEPvmRKNS_10EnvOptionsE
librocksdb.so.5.4:_ZN7rocksdb21PosixMmapReadableFileC2EiRKNSt7__cxx1112basic_stringIcSt11char_traitsIcESaIcEEEPvmRKNS_10EnvOptionsE
librocksdb.so.5.4:_ZN7rocksdb21PosixMmapReadableFileD0Ev
librocksdb.so.5.4:_ZN7rocksdb21PosixMmapReadableFileD1Ev
librocksdb.so.5.4:_ZN7rocksdb21PosixMmapReadableFileD2Ev
librocksdb.so.5.4:_ZN7rocksdb21PosixRandomAccessFile15InvalidateCacheEmm
librocksdb.so.5.4:_ZN7rocksdb21PosixRandomAccessFile4HintENS_16RandomAccessFile13AccessPatternE
librocksdb.so.5.4:_ZN7rocksdb21PosixRandomAccessFile8PrefetchEmm
librocksdb.so.5.4:_ZN7rocksdb21PosixRandomAccessFileC1ERKNSt7__cxx1112basic_stringIcSt11char_traitsIcESaIcEEEiRKNS_10EnvOptionsE
librocksdb.so.5.4:_ZN7rocksdb21PosixRandomAccessFileC2ERKNSt7__cxx1112basic_stringIcSt11char_traitsIcESaIcEEEiRKNS_10EnvOptionsE
librocksdb.so.5.4:_ZN7rocksdb21PosixRandomAccessFileD0Ev
librocksdb.so.5.4:_ZN7rocksdb21PosixRandomAccessFileD1Ev
librocksdb.so.5.4:_ZN7rocksdb21PosixRandomAccessFileD2Ev
librocksdb.so.5.4:_ZN7rocksdb21RandomAccessCacheFile4OpenEb
librocksdb.so.5.4:_ZN7rocksdb21RandomAccessCacheFile4ReadERKNS_19LogicalBlockAddressEPNS_5SliceES5_Pc
librocksdb.so.5.4:_ZN7rocksdb21RandomAccessCacheFile8OpenImplEb
librocksdb.so.5.4:_ZN7rocksdb21RandomAccessCacheFile8ParseRecERKNS_19LogicalBlockAddressEPNS_5SliceES5_Pc
librocksdb.so.5.4:_ZN7rocksdb21ReduceDBLevelsCommand11PrepareArgsERKNSt7__cxx1112basic_stringIcSt11char_traitsIcESaIcEEEib
librocksdb.so.5.4:_ZN7rocksdb21ReduceDBLevelsCommand17GetOldNumOfLevelsERNS_7OptionsEPi
librocksdb.so.5.4:_ZN7rocksdb21ReduceDBLevelsCommand23PrepareOptionsForOpenDBEv
librocksdb.so.5.4:_ZN7rocksdb21ReduceDBLevelsCommand4HelpERNSt7__cxx1112basic_stringIcSt11char_traitsIcESaIcEEE
librocksdb.so.5.4:_ZN7rocksdb21ReduceDBLevelsCommand9DoCommandEv
librocksdb.so.5.4:_ZN7rocksdb21ReduceDBLevelsCommandC1ERKSt6vectorINSt7__cxx1112basic_stringIcSt11char_traitsIcESaIcEEESaIS7_EERKSt3mapIS7_S7_St4lessIS7_ESaISt4pairIKS7_S7_EEESB_
librocksdb.so.5.4:_ZN7rocksdb21ReduceDBLevelsCommandC2ERKSt6vectorINSt7__cxx1112basic_stringIcSt11char_traitsIcESaIcEEESaIS7_EERKSt3mapIS7_S7_St4lessIS7_ESaISt4pairIKS7_S7_EEESB_
librocksdb.so.5.4:_ZN7rocksdb21SeekToPropertiesBlockEPNS_16InternalIteratorEPb
librocksdb.so.5.4:_ZN7rocksdb21SomeFileOverlapsRangeERKNS_21InternalKeyComparatorEbRKNS_15LevelFilesBriefEPKNS_5SliceES8_
librocksdb.so.5.4:_ZN7rocksdb21TableFileNameToNumberERKNSt7__cxx1112basic_stringIcSt11char_traitsIcESaIcEEE
librocksdb.so.5.4:_ZN7rocksdb21UnPackSequenceAndTypeEmPmPNS_9ValueTypeE
librocksdb.so.5.4:_ZN7rocksdb21fromInternalValueTypeENS_9ValueTypeE
librocksdb.so.5.4:_ZN7rocksdb22BlockBasedTableBuilder10WriteBlockEPNS_12BlockBuilderEPNS_11BlockHandleEb
librocksdb.so.5.4:_ZN7rocksdb22BlockBasedTableBuilder10WriteBlockERKNS_5SliceEPNS_11BlockHandleEb
librocksdb.so.5.4:_ZN7rocksdb22BlockBasedTableBuilder13WriteRawBlockERKNS_5SliceENS_15CompressionTypeEPNS_11BlockHandleE
librocksdb.so.5.4:_ZN7rocksdb22BlockBasedTableBuilder18InsertBlockInCacheERKNS_5SliceENS_15CompressionTypeEPKNS_11BlockHandleE
librocksdb.so.5.4:_ZN7rocksdb22BlockBasedTableBuilder3AddERKNS_5SliceES3_
librocksdb.so.5.4:_ZN7rocksdb22BlockBasedTableBuilder5FlushEv
librocksdb.so.5.4:_ZN7rocksdb22BlockBasedTableBuilder6FinishEv
librocksdb.so.5.4:_ZN7rocksdb22BlockBasedTableBuilder7AbandonEv
librocksdb.so.5.4:_ZN7rocksdb22BlockBasedTableBuilderC1ERKNS_18ImmutableCFOptionsERKNS_22BlockBasedTableOptionsERKNS_21InternalKeyComparatorEPKSt6vectorISt10unique_ptrINS_26IntTblPropCollectorFactoryESt14default_deleteISC_EESaISF_EEjPNS_18WritableFileWriterENS_15CompressionTypeERKNS_18CompressionOptionsEPKNSt7__cxx1112basic_stringIcSt11char_traitsIcESaIcEEEbRSW_
librocksdb.so.5.4:_ZN7rocksdb22BlockBasedTableBuilderC2ERKNS_18ImmutableCFOptionsERKNS_22BlockBasedTableOptionsERKNS_21InternalKeyComparatorEPKSt6vectorISt10unique_ptrINS_26IntTblPropCollectorFactoryESt14default_deleteISC_EESaISF_EEjPNS_18WritableFileWriterENS_15CompressionTypeERKNS_18CompressionOptionsEPKNSt7__cxx1112basic_stringIcSt11char_traitsIcESaIcEEEbRSW_
librocksdb.so.5.4:_ZN7rocksdb22BlockBasedTableBuilderD0Ev
librocksdb.so.5.4:_ZN7rocksdb22BlockBasedTableBuilderD1Ev
librocksdb.so.5.4:_ZN7rocksdb22BlockBasedTableBuilderD2Ev
librocksdb.so.5.4:_ZN7rocksdb22BlockBasedTableFactoryC1ERKNS_22BlockBasedTableOptionsE
librocksdb.so.5.4:_ZN7rocksdb22BlockBasedTableFactoryC2ERKNS_22BlockBasedTableOptionsE
librocksdb.so.5.4:_ZN7rocksdb22BlockCacheTierMetadata13RemoveAllKeysEPNS_14BlockCacheFileE
librocksdb.so.5.4:_ZN7rocksdb22BlockCacheTierMetadata5ClearEv
librocksdb.so.5.4:_ZN7rocksdb22BlockCacheTierMetadata5EvictEv
librocksdb.so.5.4:_ZN7rocksdb22BlockCacheTierMetadata6InsertEPNS_14BlockCacheFileE
librocksdb.so.5.4:_ZN7rocksdb22BlockCacheTierMetadata6InsertERKNS_5SliceERKNS_19LogicalBlockAddressE
librocksdb.so.5.4:_ZN7rocksdb22BlockCacheTierMetadata6LookupERKNS_5SliceEPNS_19LogicalBlockAddressE
librocksdb.so.5.4:_ZN7rocksdb22BlockCacheTierMetadata6LookupEj
librocksdb.so.5.4:_ZN7rocksdb22BlockCacheTierMetadata6RemoveERKNS_5SliceE
librocksdb.so.5.4:_ZN7rocksdb22ColumnFamilyHandleImpl13GetDescriptorEPNS_22ColumnFamilyDescriptorE
librocksdb.so.5.4:_ZN7rocksdb22ColumnFamilyHandleImplC1EPNS_16ColumnFamilyDataEPNS_6DBImplEPNS_17InstrumentedMutexE
librocksdb.so.5.4:_ZN7rocksdb22ColumnFamilyHandleImplC2EPNS_16ColumnFamilyDataEPNS_6DBImplEPNS_17InstrumentedMutexE
librocksdb.so.5.4:_ZN7rocksdb22ColumnFamilyHandleImplD0Ev
librocksdb.so.5.4:_ZN7rocksdb22ColumnFamilyHandleImplD1Ev
librocksdb.so.5.4:_ZN7rocksdb22ColumnFamilyHandleImplD2Ev
librocksdb.so.5.4:_ZN7rocksdb22FullFilterBlockBuilder3AddERKNS_5SliceE
librocksdb.so.5.4:_ZN7rocksdb22FullFilterBlockBuilder6FinishERKNS_11BlockHandleEPNS_6StatusE
librocksdb.so.5.4:_ZN7rocksdb22FullFilterBlockBuilderC1EPKNS_14SliceTransformEbPNS_17FilterBitsBuilderE
librocksdb.so.5.4:_ZN7rocksdb22FullFilterBlockBuilderC2EPKNS_14SliceTransformEbPNS_17FilterBitsBuilderE
librocksdb.so.5.4:_ZN7rocksdb22GetDBOptionsFromStringERKNS_9DBOptionsERKNSt7__cxx1112basic_stringIcSt11char_traitsIcESaIcEEEPS0_
librocksdb.so.5.4:_ZN7rocksdb22GetStringFromDBOptionsEPNSt7__cxx1112basic_stringIcSt11char_traitsIcESaIcEEERKNS_9DBOptionsERKS5_
librocksdb.so.5.4:_ZN7rocksdb22GetTableFactoryFromMapERKNSt7__cxx1112basic_stringIcSt11char_traitsIcESaIcEEERKSt13unordered_mapIS5_S5_St4hashIS5_ESt8equal_toIS5_ESaISt4pairIS6_S5_EEEPSt10shared_ptrINS_12TableFactoryEE
librocksdb.so.5.4:_ZN7rocksdb22GetVarint32PtrFallbackEPKcS1_Pj
librocksdb.so.5.4:_ZN7rocksdb22HashLinkListRepFactory17CreateMemTableRepERKNS_11MemTableRep13KeyComparatorEPNS_17MemTableAllocatorEPKNS_14SliceTransformEPNS_6LoggerE
librocksdb.so.5.4:_ZN7rocksdb22HashSkipListRepFactory17CreateMemTableRepERKNS_11MemTableRep13KeyComparatorEPNS_17MemTableAllocatorEPKNS_14SliceTransformEPNS_6LoggerE
librocksdb.so.5.4:_ZN7rocksdb22HistogramWindowingImpl17SwapHistoryBucketEv
librocksdb.so.5.4:_ZN7rocksdb22HistogramWindowingImpl3AddEm
librocksdb.so.5.4:_ZN7rocksdb22HistogramWindowingImpl5ClearEv
librocksdb.so.5.4:_ZN7rocksdb22HistogramWindowingImpl5MergeERKNS_9HistogramE
librocksdb.so.5.4:_ZN7rocksdb22HistogramWindowingImpl5MergeERKS0_
librocksdb.so.5.4:_ZN7rocksdb22HistogramWindowingImpl9TimerTickEv
librocksdb.so.5.4:_ZN7rocksdb22HistogramWindowingImplC1Emmm
librocksdb.so.5.4:_ZN7rocksdb22HistogramWindowingImplC1Ev
librocksdb.so.5.4:_ZN7rocksdb22HistogramWindowingImplC2Emmm
librocksdb.so.5.4:_ZN7rocksdb22HistogramWindowingImplC2Ev
librocksdb.so.5.4:_ZN7rocksdb22HistogramWindowingImplD0Ev
librocksdb.so.5.4:_ZN7rocksdb22HistogramWindowingImplD1Ev
librocksdb.so.5.4:_ZN7rocksdb22HistogramWindowingImplD2Ev
librocksdb.so.5.4:_ZN7rocksdb22ParsePlainTableOptionsERKNSt7__cxx1112basic_stringIcSt11char_traitsIcESaIcEEES7_PNS_17PlainTableOptionsEb
librocksdb.so.5.4:_ZN7rocksdb22PlainTableIndexBuilder11FillIndexesERKSt6vectorIPNS0_11IndexRecordESaIS3_EERKS1_IjSaIjEE
librocksdb.so.5.4:_ZN7rocksdb22PlainTableIndexBuilder12AddKeyPrefixENS_5SliceEj
librocksdb.so.5.4:_ZN7rocksdb22PlainTableIndexBuilder13AllocateIndexEv
librocksdb.so.5.4:_ZN7rocksdb22PlainTableIndexBuilder15IndexRecordList9AddRecordEjj
librocksdb.so.5.4:_ZN7rocksdb22PlainTableIndexBuilder16BucketizeIndexesEPSt6vectorIPNS0_11IndexRecordESaIS3_EEPS1_IjSaIjEE
librocksdb.so.5.4:_ZN7rocksdb22PlainTableIndexBuilder6FinishEv
librocksdb.so.5.4:_ZN7rocksdb22TransactionDBMutexImpl10TryLockForEl
librocksdb.so.5.4:_ZN7rocksdb22TransactionDBMutexImpl4LockEv
librocksdb.so.5.4:_ZN7rocksdb23AppendInternalKeyFooterEPNSt7__cxx1112basic_stringIcSt11char_traitsIcESaIcEEEmNS_9ValueTypeE
librocksdb.so.5.4:_ZN7rocksdb23CancelAllBackgroundWorkEPNS_2DBEb
librocksdb.so.5.4:_ZN7rocksdb23CheckConsistencyCommand4HelpERNSt7__cxx1112basic_stringIcSt11char_traitsIcESaIcEEE
librocksdb.so.5.4:_ZN7rocksdb23CheckConsistencyCommand9DoCommandEv
librocksdb.so.5.4:_ZN7rocksdb23CheckConsistencyCommandC1ERKSt6vectorINSt7__cxx1112basic_stringIcSt11char_traitsIcESaIcEEESaIS7_EERKSt3mapIS7_S7_St4lessIS7_ESaISt4pairIKS7_S7_EEESB_
librocksdb.so.5.4:_ZN7rocksdb23CheckConsistencyCommandC2ERKSt6vectorINSt7__cxx1112basic_stringIcSt11char_traitsIcESaIcEEESaIS7_EERKSt3mapIS7_S7_St4lessIS7_ESaISt4pairIKS7_S7_EEESB_
librocksdb.so.5.4:_ZN7rocksdb23CompactionPressureTokenD0Ev
librocksdb.so.5.4:_ZN7rocksdb23CompactionPressureTokenD1Ev
librocksdb.so.5.4:_ZN7rocksdb23CompactionPressureTokenD2Ev
librocksdb.so.5.4:_ZN7rocksdb23CreateLoggerFromOptionsERKNSt7__cxx1112basic_stringIcSt11char_traitsIcESaIcEEERKNS_9DBOptionsEPSt10shared_ptrINS_6LoggerEE
librocksdb.so.5.4:_ZN7rocksdb23DumpRocksDBBuildVersionEPNS_6LoggerE
librocksdb.so.5.4:_ZN7rocksdb23NewAdaptiveTableFactoryESt10shared_ptrINS_12TableFactoryEES2_S2_S2_
librocksdb.so.5.4:_ZN7rocksdb23NewFixedPrefixTransformEm
librocksdb.so.5.4:_ZN7rocksdb23NewHashCuckooRepFactoryEmmj
librocksdb.so.5.4:_ZN7rocksdb23OptimisticTransactionDB4OpenERKNS_7OptionsERKNSt7__cxx1112basic_stringIcSt11char_traitsIcESaIcEEEPPS0_
librocksdb.so.5.4:_ZN7rocksdb23OptimisticTransactionDB4OpenERKNS_9DBOptionsERKNSt7__cxx1112basic_stringIcSt11char_traitsIcESaIcEEERKSt6vectorINS_22ColumnFamilyDescriptorESaISD_EEPSC_IPNS_18ColumnFamilyHandleESaISJ_EEPPS0_
librocksdb.so.5.4:_ZN7rocksdb23PackFileNumberAndPathIdEmm
librocksdb.so.5.4:_ZN7rocksdb23ParseColumnFamilyOptionERKNSt7__cxx1112basic_stringIcSt11char_traitsIcESaIcEEES7_PNS_19ColumnFamilyOptionsEb
librocksdb.so.5.4:_ZN7rocksdb23PartitionedIndexBuilder13AddIndexEntryEPNSt7__cxx1112basic_stringIcSt11char_traitsIcESaIcEEEPKNS_5SliceERKNS_11BlockHandleE
librocksdb.so.5.4:_ZN7rocksdb23PartitionedIndexBuilder18CreateIndexBuilderEPKNS_21InternalKeyComparatorERKNS_22BlockBasedTableOptionsE
librocksdb.so.5.4:_ZN7rocksdb23PartitionedIndexBuilder22MakeNewSubIndexBuilderEv
librocksdb.so.5.4:_ZN7rocksdb23PartitionedIndexBuilder6FinishEPNS_12IndexBuilder11IndexBlocksERKNS_11BlockHandleE
librocksdb.so.5.4:_ZN7rocksdb23PartitionedIndexBuilderC1EPKNS_21InternalKeyComparatorERKNS_22BlockBasedTableOptionsE
librocksdb.so.5.4:_ZN7rocksdb23PartitionedIndexBuilderC2EPKNS_21InternalKeyComparatorERKNS_22BlockBasedTableOptionsE
librocksdb.so.5.4:_ZN7rocksdb23PartitionedIndexBuilderD0Ev
librocksdb.so.5.4:_ZN7rocksdb23PartitionedIndexBuilderD1Ev
librocksdb.so.5.4:_ZN7rocksdb23PartitionedIndexBuilderD2Ev
librocksdb.so.5.4:_ZN7rocksdb23SerializeSingleDBOptionEPNSt7__cxx1112basic_stringIcSt11char_traitsIcESaIcEEERKNS_9DBOptionsERKS5_SB_
librocksdb.so.5.4:_ZN7rocksdb23UncompressBlockContentsEPKcmPNS_13BlockContentsEjRKNS_5SliceERKNS_18ImmutableCFOptionsE
librocksdb.so.5.4:_ZN7rocksdb24BuildColumnFamilyOptionsERKNS_19ColumnFamilyOptionsERKNS_16MutableCFOptionsE
librocksdb.so.5.4:_ZN7rocksdb24CFOptionSanityCheckLevelERKNSt7__cxx1112basic_stringIcSt11char_traitsIcESaIcEEE
librocksdb.so.5.4:_ZN7rocksdb24DBOptionSanityCheckLevelERKNSt7__cxx1112basic_stringIcSt11char_traitsIcESaIcEEE
librocksdb.so.5.4:_ZN7rocksdb24GetDefaultCacheShardBitsEm
librocksdb.so.5.4:_ZN7rocksdb24GetLatestOptionsFileNameERKNSt7__cxx1112basic_stringIcSt11char_traitsIcESaIcEEEPNS_3EnvEPS5_
librocksdb.so.5.4:_ZN7rocksdb24GetSupportedCompressionsEv
librocksdb.so.5.4:_ZN7rocksdb24NewCappedPrefixTransformEm
librocksdb.so.5.4:_ZN7rocksdb24NewEmptyInternalIteratorEPNS_5ArenaE
librocksdb.so.5.4:_ZN7rocksdb24NewEmptyInternalIteratorEv
librocksdb.so.5.4:_ZN7rocksdb24NewErrorInternalIteratorERKNS_6StatusE
librocksdb.so.5.4:_ZN7rocksdb24NewErrorInternalIteratorERKNS_6StatusEPNS_5ArenaE
librocksdb.so.5.4:_ZN7rocksdb24NewRandomAccessCacheFileEPNS_3EnvERKNSt7__cxx1112basic_stringIcSt11char_traitsIcESaIcEEEPSt10unique_ptrINS_16RandomAccessFileESt14default_deleteISB_EEb
librocksdb.so.5.4:_ZN7rocksdb24ReadRecordFromWriteBatchEPNS_5SliceEPcPjS1_S1_S1_S1_
librocksdb.so.5.4:_ZN7rocksdb24Rocks2LevelTableFileNameERKNSt7__cxx1112basic_stringIcSt11char_traitsIcESaIcEEE
librocksdb.so.5.4:_ZN7rocksdb24ShouldReportDetailedTimeEPNS_3EnvEPNS_10StatisticsE
librocksdb.so.5.4:_ZN7rocksdb24StringAppendTESTOperatorC1Ec
librocksdb.so.5.4:_ZN7rocksdb24StringAppendTESTOperatorC2Ec
librocksdb.so.5.4:_ZN7rocksdb24TransactionDBCondVarImpl4WaitESt10shared_ptrINS_18TransactionDBMutexEE
librocksdb.so.5.4:_ZN7rocksdb24TransactionDBCondVarImpl7WaitForESt10shared_ptrINS_18TransactionDBMutexEEl
librocksdb.so.5.4:_ZN7rocksdb24XXH32_intermediateDigestEPv
librocksdb.so.5.4:_ZN7rocksdb25BBTOptionSanityCheckLevelERKNSt7__cxx1112basic_stringIcSt11char_traitsIcESaIcEEE
librocksdb.so.5.4:_ZN7rocksdb25CheckCompressionSupportedERKNS_19ColumnFamilyOptionsE
librocksdb.so.5.4:_ZN7rocksdb25CheckOptionsCompatibilityERKNSt7__cxx1112basic_stringIcSt11char_traitsIcESaIcEEEPNS_3EnvERKNS_9DBOptionsERKSt6vectorINS_22ColumnFamilyDescriptorESaISE_EE
librocksdb.so.5.4:_ZN7rocksdb25ColumnFamilyMemTablesImpl21GetColumnFamilyHandleEv
librocksdb.so.5.4:_ZN7rocksdb25ColumnFamilyMemTablesImpl4SeekEj
librocksdb.so.5.4:_ZN7rocksdb25CreateColumnFamilyCommand4HelpERNSt7__cxx1112basic_stringIcSt11char_traitsIcESaIcEEE
librocksdb.so.5.4:_ZN7rocksdb25CreateColumnFamilyCommand9DoCommandEv
librocksdb.so.5.4:_ZN7rocksdb25CreateColumnFamilyCommandC1ERKSt6vectorINSt7__cxx1112basic_stringIcSt11char_traitsIcESaIcEEESaIS7_EERKSt3mapIS7_S7_St4lessIS7_ESaISt4pairIKS7_S7_EEESB_
librocksdb.so.5.4:_ZN7rocksdb25CreateColumnFamilyCommandC2ERKSt6vectorINSt7__cxx1112basic_stringIcSt11char_traitsIcESaIcEEESaIS7_EERKSt3mapIS7_S7_St4lessIS7_ESaISt4pairIKS7_S7_EEESB_
librocksdb.so.5.4:_ZN7rocksdb25DoGenerateLevelFilesBriefEPNS_15LevelFilesBriefERKSt6vectorIPNS_12FileMetaDataESaIS4_EEPNS_5ArenaE
librocksdb.so.5.4:_ZN7rocksdb25GetStringFromTableFactoryEPNSt7__cxx1112basic_stringIcSt11char_traitsIcESaIcEEEPKNS_12TableFactoryERKS5_
librocksdb.so.5.4:_ZN7rocksdb25ListColumnFamiliesCommand4HelpERNSt7__cxx1112basic_stringIcSt11char_traitsIcESaIcEEE
librocksdb.so.5.4:_ZN7rocksdb25ListColumnFamiliesCommand9DoCommandEv
librocksdb.so.5.4:_ZN7rocksdb25ListColumnFamiliesCommandC1ERKSt6vectorINSt7__cxx1112basic_stringIcSt11char_traitsIcESaIcEEESaIS7_EERKSt3mapIS7_S7_St4lessIS7_ESaISt4pairIKS7_S7_EEESB_
librocksdb.so.5.4:_ZN7rocksdb25ListColumnFamiliesCommandC2ERKSt6vectorINSt7__cxx1112basic_stringIcSt11char_traitsIcESaIcEEESaIS7_EERKSt3mapIS7_S7_St4lessIS7_ESaISt4pairIKS7_S7_EEESB_
librocksdb.so.5.4:_ZN7rocksdb25NewArenaWrappedDbIteratorEPNS_3EnvERKNS_11ReadOptionsERKNS_18ImmutableCFOptionsEPKNS_10ComparatorERKmmm
librocksdb.so.5.4:_ZN7rocksdb25NewBlockBasedTableFactoryERKNS_22BlockBasedTableOptionsE
librocksdb.so.5.4:_ZN7rocksdb25NewHashLinkListRepFactoryEmmibj
librocksdb.so.5.4:_ZN7rocksdb25NewHashSkipListRepFactoryEmii
librocksdb.so.5.4:_ZN7rocksdb25OptimisticTransactionImpl10InitializeERKNS_28OptimisticTransactionOptionsE
librocksdb.so.5.4:_ZN7rocksdb25OptimisticTransactionImpl12ReinitializeEPNS_23OptimisticTransactionDBERKNS_12WriteOptionsERKNS_28OptimisticTransactionOptionsE
librocksdb.so.5.4:_ZN7rocksdb25OptimisticTransactionImpl28CheckTransactionForConflictsEPNS_2DBE
librocksdb.so.5.4:_ZN7rocksdb25OptimisticTransactionImpl5ClearEv
librocksdb.so.5.4:_ZN7rocksdb25OptimisticTransactionImpl6CommitEv
librocksdb.so.5.4:_ZN7rocksdb25OptimisticTransactionImpl7PrepareEv
librocksdb.so.5.4:_ZN7rocksdb25OptimisticTransactionImpl7SetNameERKNSt7__cxx1112basic_stringIcSt11char_traitsIcESaIcEEE
librocksdb.so.5.4:_ZN7rocksdb25OptimisticTransactionImpl7TryLockEPNS_18ColumnFamilyHandleERKNS_5SliceEbbb
librocksdb.so.5.4:_ZN7rocksdb25OptimisticTransactionImpl8RollbackEv
librocksdb.so.5.4:_ZN7rocksdb25OptimisticTransactionImplC1EPNS_23OptimisticTransactionDBERKNS_12WriteOptionsERKNS_28OptimisticTransactionOptionsE
librocksdb.so.5.4:_ZN7rocksdb25OptimisticTransactionImplC2EPNS_23OptimisticTransactionDBERKNS_12WriteOptionsERKNS_28OptimisticTransactionOptionsE
librocksdb.so.5.4:_ZN7rocksdb25OptimisticTransactionImplD0Ev
librocksdb.so.5.4:_ZN7rocksdb25OptimisticTransactionImplD1Ev
librocksdb.so.5.4:_ZN7rocksdb25OptimisticTransactionImplD2Ev
librocksdb.so.5.4:_ZN7rocksdb25RandomTransactionInserter19TransactionDBInsertEPNS_13TransactionDBERKNS_18TransactionOptionsE
librocksdb.so.5.4:_ZN7rocksdb25RandomTransactionInserter29OptimisticTransactionDBInsertEPNS_23OptimisticTransactionDBERKNS_28OptimisticTransactionOptionsE
librocksdb.so.5.4:_ZN7rocksdb25RandomTransactionInserter6VerifyEPNS_2DBEt
librocksdb.so.5.4:_ZN7rocksdb25RandomTransactionInserter8DBInsertEPNS_2DBE
librocksdb.so.5.4:_ZN7rocksdb25RandomTransactionInserter8DoInsertEPNS_2DBEPNS_11TransactionEb
librocksdb.so.5.4:_ZN7rocksdb25RandomTransactionInserterC1EPNS_8Random64ERKNS_12WriteOptionsERKNS_11ReadOptionsEmt
librocksdb.so.5.4:_ZN7rocksdb25RandomTransactionInserterC2EPNS_8Random64ERKNS_12WriteOptionsERKNS_11ReadOptionsEmt
librocksdb.so.5.4:_ZN7rocksdb25RandomTransactionInserterD1Ev
librocksdb.so.5.4:_ZN7rocksdb25RandomTransactionInserterD2Ev
librocksdb.so.5.4:_ZN7rocksdb25ReverseBytewiseComparatorEv
librocksdb.so.5.4:_ZN7rocksdb25UniversalCompactionPicker14PickCompactionERKNSt7__cxx1112basic_stringIcSt11char_traitsIcESaIcEEERKNS_16MutableCFOptionsEPNS_18VersionStorageInfoEPNS_9LogBufferE
librocksdb.so.5.4:_ZN7rocksdb25UniversalCompactionPicker19CalculateSortedRunsERKNS_18VersionStorageInfoERKNS_18ImmutableCFOptionsE
librocksdb.so.5.4:_ZN7rocksdb25UniversalCompactionPicker26IsInputFilesNonOverlappingEPNS_10CompactionE
librocksdb.so.5.4:_ZN7rocksdb25UniversalCompactionPicker29PickCompactionToReduceSizeAmpERKNSt7__cxx1112basic_stringIcSt11char_traitsIcESaIcEEERKNS_16MutableCFOptionsEPNS_18VersionStorageInfoEdRKSt6vectorINS0_9SortedRunESaISF_EEPNS_9LogBufferE
librocksdb.so.5.4:_ZN7rocksdb25UniversalCompactionPicker32PickCompactionToReduceSortedRunsERKNSt7__cxx1112basic_stringIcSt11char_traitsIcESaIcEEERKNS_16MutableCFOptionsEPNS_18VersionStorageInfoEdjjRKSt6vectorINS0_9SortedRunESaISF_EEPNS_9LogBufferE
librocksdb.so.5.4:_ZN7rocksdb25UniversalCompactionPicker9GetPathIdERKNS_18ImmutableCFOptionsEm
librocksdb.so.5.4:_ZN7rocksdb26CompactOnDeletionCollector10AddUserKeyERKNS_5SliceES3_NS_9EntryTypeEmm
librocksdb.so.5.4:_ZN7rocksdb26CompactOnDeletionCollector5ResetEv
librocksdb.so.5.4:_ZN7rocksdb26CompactOnDeletionCollectorC1Emm
librocksdb.so.5.4:_ZN7rocksdb26CompactOnDeletionCollectorC2Emm
librocksdb.so.5.4:_ZN7rocksdb26ParseBlockBasedTableOptionERKNSt7__cxx1112basic_stringIcSt11char_traitsIcESaIcEEES7_PNS_22BlockBasedTableOptionsEb
librocksdb.so.5.4:_ZN7rocksdb26ReadKeyFromWriteBatchEntryEPNS_5SliceES1_b
librocksdb.so.5.4:_ZN7rocksdb26SeekToCompressionDictBlockEPNS_16InternalIteratorEPb
librocksdb.so.5.4:_ZN7rocksdb26TransactionLogIteratorImpl11OpenLogFileEPKNS_7LogFileEPSt10unique_ptrINS_20SequentialFileReaderESt14default_deleteIS5_EE
librocksdb.so.5.4:_ZN7rocksdb26TransactionLogIteratorImpl13OpenLogReaderEPKNS_7LogFileE
librocksdb.so.5.4:_ZN7rocksdb26TransactionLogIteratorImpl14RestrictedReadEPNS_5SliceEPNSt7__cxx1112basic_stringIcSt11char_traitsIcESaIcEEE
librocksdb.so.5.4:_ZN7rocksdb26TransactionLogIteratorImpl15IsBatchExpectedEPKNS_10WriteBatchEm
librocksdb.so.5.4:_ZN7rocksdb26TransactionLogIteratorImpl19SeekToStartSequenceEmb
librocksdb.so.5.4:_ZN7rocksdb26TransactionLogIteratorImpl23UpdateCurrentWriteBatchERKNS_5SliceE
librocksdb.so.5.4:_ZN7rocksdb26TransactionLogIteratorImpl4NextEv
librocksdb.so.5.4:_ZN7rocksdb26TransactionLogIteratorImpl5ValidEv
librocksdb.so.5.4:_ZN7rocksdb26TransactionLogIteratorImpl6statusEv
librocksdb.so.5.4:_ZN7rocksdb26TransactionLogIteratorImpl8GetBatchEv
librocksdb.so.5.4:_ZN7rocksdb26TransactionLogIteratorImpl8NextImplEb
librocksdb.so.5.4:_ZN7rocksdb26TransactionLogIteratorImplC1ERKNSt7__cxx1112basic_stringIcSt11char_traitsIcESaIcEEEPKNS_18ImmutableDBOptionsERKNS_22TransactionLogIterator11ReadOptionsERKNS_10EnvOptionsEmSt10unique_ptrISt6vectorISJ_INS_7LogFileESt14default_deleteISL_EESaISO_EESM_ISQ_EEPKNS_10VersionSetE
librocksdb.so.5.4:_ZN7rocksdb26TransactionLogIteratorImplC2ERKNSt7__cxx1112basic_stringIcSt11char_traitsIcESaIcEEEPKNS_18ImmutableDBOptionsERKNS_22TransactionLogIterator11ReadOptionsERKNS_10EnvOptionsEmSt10unique_ptrISt6vectorISJ_INS_7LogFileESt14default_deleteISL_EESaISO_EESM_ISQ_EEPKNS_10VersionSetE
librocksdb.so.5.4:_ZN7rocksdb27AdvancedColumnFamilyOptionsC1ERKNS_7OptionsE
librocksdb.so.5.4:_ZN7rocksdb27AdvancedColumnFamilyOptionsC1Ev
librocksdb.so.5.4:_ZN7rocksdb27AdvancedColumnFamilyOptionsC2ERKNS_7OptionsE
librocksdb.so.5.4:_ZN7rocksdb27AdvancedColumnFamilyOptionsC2Ev
librocksdb.so.5.4:_ZN7rocksdb27BlockBasedFilterBlockReader11KeyMayMatchERKNS_5SliceEmbPS2_
librocksdb.so.5.4:_ZN7rocksdb27BlockBasedFilterBlockReader14PrefixMayMatchERKNS_5SliceEmbPS2_
librocksdb.so.5.4:_ZN7rocksdb27BlockBasedFilterBlockReader8MayMatchERKNS_5SliceEm
librocksdb.so.5.4:_ZN7rocksdb27BlockBasedFilterBlockReaderC1EPKNS_14SliceTransformERKNS_22BlockBasedTableOptionsEbONS_13BlockContentsEPNS_10StatisticsE
librocksdb.so.5.4:_ZN7rocksdb27BlockBasedFilterBlockReaderC2EPKNS_14SliceTransformERKNS_22BlockBasedTableOptionsEbONS_13BlockContentsEPNS_10StatisticsE
librocksdb.so.5.4:_ZN7rocksdb27ExternalSstFileIngestionJob10NeedsFlushEPb
librocksdb.so.5.4:_ZN7rocksdb27ExternalSstFileIngestionJob11UpdateStatsEv
librocksdb.so.5.4:_ZN7rocksdb27ExternalSstFileIngestionJob19GetIngestedFileInfoERKNSt7__cxx1112basic_stringIcSt11char_traitsIcESaIcEEEPNS_16IngestedFileInfoE
librocksdb.so.5.4:_ZN7rocksdb27ExternalSstFileIngestionJob22IngestedFileFitInLevelEPKNS_16IngestedFileInfoEi
librocksdb.so.5.4:_ZN7rocksdb27ExternalSstFileIngestionJob26AssignLevelForIngestedFileEPNS_12SuperVersionEPNS_16IngestedFileInfoEPb
librocksdb.so.5.4:_ZN7rocksdb27ExternalSstFileIngestionJob32AssignGlobalSeqnoForIngestedFileEPNS_16IngestedFileInfoEm
librocksdb.so.5.4:_ZN7rocksdb27ExternalSstFileIngestionJob33IngestedFilesOverlapWithMemtablesEPNS_12SuperVersionEPb
librocksdb.so.5.4:_ZN7rocksdb27ExternalSstFileIngestionJob36IngestedFileOverlapWithIteratorRangeEPKNS_16IngestedFileInfoEPNS_16InternalIteratorEPb
librocksdb.so.5.4:_ZN7rocksdb27ExternalSstFileIngestionJob3RunEv
librocksdb.so.5.4:_ZN7rocksdb27ExternalSstFileIngestionJob7CleanupERKNS_6StatusE
librocksdb.so.5.4:_ZN7rocksdb27ExternalSstFileIngestionJob7PrepareERKSt6vectorINSt7__cxx1112basic_stringIcSt11char_traitsIcESaIcEEESaIS7_EE
librocksdb.so.5.4:_ZN7rocksdb27GetDBOptionsFromMapInternalERKNS_9DBOptionsERKSt13unordered_mapINSt7__cxx1112basic_stringIcSt11char_traitsIcESaIcEEES9_St4hashIS9_ESt8equal_toIS9_ESaISt4pairIKS9_S9_EEEPS0_bPSt6vectorIS9_SaIS9_EE
librocksdb.so.5.4:_ZN7rocksdb27GetPlainTableOptionsFromMapERKNS_17PlainTableOptionsERKSt13unordered_mapINSt7__cxx1112basic_stringIcSt11char_traitsIcESaIcEEES9_St4hashIS9_ESt8equal_toIS9_ESaISt4pairIKS9_S9_EEEPS0_b
librocksdb.so.5.4:_ZN7rocksdb27OptimisticTransactionDBImpl16BeginTransactionERKNS_12WriteOptionsERKNS_28OptimisticTransactionOptionsEPNS_11TransactionE
librocksdb.so.5.4:_ZN7rocksdb27OptimisticTransactionDBImpl23ReinitializeTransactionEPNS_11TransactionERKNS_12WriteOptionsERKNS_28OptimisticTransactionOptionsE
librocksdb.so.5.4:_ZN7rocksdb27SerializeSingleOptionHelperEPKcNS_10OptionTypeEPNSt7__cxx1112basic_stringIcSt11char_traitsIcESaIcEEE
librocksdb.so.5.4:_ZN7rocksdb27WriteBatchWithIndexInternal12GetFromBatchERKNS_18ImmutableDBOptionsEPNS_19WriteBatchWithIndexEPNS_18ColumnFamilyHandleERKNS_5SliceEPNS_12MergeContextEPNS_25WriteBatchEntryComparatorEPNSt7__cxx1112basic_stringIcSt11char_traitsIcESaIcEEEbPNS_6StatusE
librocksdb.so.5.4:_ZN7rocksdb28BlockBasedFilterBlockBuilder10StartBlockEm
librocksdb.so.5.4:_ZN7rocksdb28BlockBasedFilterBlockBuilder14GenerateFilterEv
librocksdb.so.5.4:_ZN7rocksdb28BlockBasedFilterBlockBuilder3AddERKNS_5SliceE
librocksdb.so.5.4:_ZN7rocksdb28BlockBasedFilterBlockBuilder6FinishERKNS_11BlockHandleEPNS_6StatusE
librocksdb.so.5.4:_ZN7rocksdb28BlockBasedFilterBlockBuilderC1EPKNS_14SliceTransformERKNS_22BlockBasedTableOptionsE
librocksdb.so.5.4:_ZN7rocksdb28BlockBasedFilterBlockBuilderC2EPKNS_14SliceTransformERKNS_22BlockBasedTableOptionsE
librocksdb.so.5.4:_ZN7rocksdb28ChangeCompactionStyleCommand23PrepareOptionsForOpenDBEv
librocksdb.so.5.4:_ZN7rocksdb28ChangeCompactionStyleCommand4HelpERNSt7__cxx1112basic_stringIcSt11char_traitsIcESaIcEEE
librocksdb.so.5.4:_ZN7rocksdb28ChangeCompactionStyleCommand9DoCommandEv
librocksdb.so.5.4:_ZN7rocksdb28ChangeCompactionStyleCommandC1ERKSt6vectorINSt7__cxx1112basic_stringIcSt11char_traitsIcESaIcEEESaIS7_EERKSt3mapIS7_S7_St4lessIS7_ESaISt4pairIKS7_S7_EEESB_
librocksdb.so.5.4:_ZN7rocksdb28ChangeCompactionStyleCommandC2ERKSt6vectorINSt7__cxx1112basic_stringIcSt11char_traitsIcESaIcEEESaIS7_EERKSt3mapIS7_S7_St4lessIS7_ESaISt4pairIKS7_S7_EEESB_
librocksdb.so.5.4:_ZN7rocksdb28GetMutableOptionsFromStringsERKNS_16MutableCFOptionsERKSt13unordered_mapINSt7__cxx1112basic_stringIcSt11char_traitsIcESaIcEEES9_St4hashIS9_ESt8equal_toIS9_ESaISt4pairIKS9_S9_EEEPS0_
librocksdb.so.5.4:_ZN7rocksdb28GetStringFromCompressionTypeEPNSt7__cxx1112basic_stringIcSt11char_traitsIcESaIcEEENS_15CompressionTypeE
librocksdb.so.5.4:_ZN7rocksdb28LogPropertiesCollectionErrorEPNS_6LoggerERKNSt7__cxx1112basic_stringIcSt11char_traitsIcESaIcEEES9_
librocksdb.so.5.4:_ZN7rocksdb28NewReadaheadRandomAccessFileEOSt10unique_ptrINS_16RandomAccessFileESt14default_deleteIS1_EEm
librocksdb.so.5.4:_ZN7rocksdb28PartitionedFilterBlockReader11KeyMayMatchERKNS_5SliceEmbPS2_
librocksdb.so.5.4:_ZN7rocksdb28PartitionedFilterBlockReader14PrefixMayMatchERKNS_5SliceEmbPS2_
librocksdb.so.5.4:_ZN7rocksdb28PartitionedFilterBlockReader18GetFilterPartitionEPNS_5SliceEbPb
librocksdb.so.5.4:_ZN7rocksdb28PartitionedFilterBlockReader24GetFilterPartitionHandleERKNS_5SliceE
librocksdb.so.5.4:_ZN7rocksdb28PartitionedFilterBlockReaderC1EPKNS_14SliceTransformEbONS_13BlockContentsEPNS_16FilterBitsReaderEPNS_10StatisticsERKNS_10ComparatorEPKNS_15BlockBasedTableE
librocksdb.so.5.4:_ZN7rocksdb28PartitionedFilterBlockReaderC2EPKNS_14SliceTransformEbONS_13BlockContentsEPNS_16FilterBitsReaderEPNS_10StatisticsERKNS_10ComparatorEPKNS_15BlockBasedTableE
librocksdb.so.5.4:_ZN7rocksdb28PartitionedFilterBlockReaderD0Ev
librocksdb.so.5.4:_ZN7rocksdb28PartitionedFilterBlockReaderD1Ev
librocksdb.so.5.4:_ZN7rocksdb28PartitionedFilterBlockReaderD2Ev
librocksdb.so.5.4:_ZN7rocksdb29FlushBlockBySizePolicyFactory19NewFlushBlockPolicyEmiRKNS_12BlockBuilderE
librocksdb.so.5.4:_ZN7rocksdb29GetColumnFamilyOptionsFromMapERKNS_19ColumnFamilyOptionsERKSt13unordered_mapINSt7__cxx1112basic_stringIcSt11char_traitsIcESaIcEEES9_St4hashIS9_ESt8equal_toIS9_ESaISt4pairIKS9_S9_EEEPS0_b
librocksdb.so.5.4:_ZN7rocksdb29GetColumnFamilyUserComparatorEPNS_18ColumnFamilyHandleE
librocksdb.so.5.4:_ZN7rocksdb29GetIntTblPropCollectorFactoryERKNS_18ImmutableCFOptionsEPSt6vectorISt10unique_ptrINS_26IntTblPropCollectorFactoryESt14default_deleteIS5_EESaIS8_EE
librocksdb.so.5.4:_ZN7rocksdb29PartitionedFilterBlockBuilder20MaybeCutAFilterBlockEv
librocksdb.so.5.4:_ZN7rocksdb29PartitionedFilterBlockBuilder6AddKeyERKNS_5SliceE
librocksdb.so.5.4:_ZN7rocksdb29PartitionedFilterBlockBuilder6FinishERKNS_11BlockHandleEPNS_6StatusE
librocksdb.so.5.4:_ZN7rocksdb29PartitionedFilterBlockBuilderC1EPKNS_14SliceTransformEbPNS_17FilterBitsBuilderEiPNS_23PartitionedIndexBuilderE
librocksdb.so.5.4:_ZN7rocksdb29PartitionedFilterBlockBuilderC2EPKNS_14SliceTransformEbPNS_17FilterBitsBuilderEiPNS_23PartitionedIndexBuilderE
librocksdb.so.5.4:_ZN7rocksdb29PartitionedFilterBlockBuilderD0Ev
librocksdb.so.5.4:_ZN7rocksdb29PartitionedFilterBlockBuilderD1Ev
librocksdb.so.5.4:_ZN7rocksdb29PartitionedFilterBlockBuilderD2Ev
librocksdb.so.5.4:_ZN7rocksdb29TransactionDBMutexFactoryImpl13AllocateMutexEv
librocksdb.so.5.4:_ZN7rocksdb29TransactionDBMutexFactoryImpl15AllocateCondVarEv
librocksdb.so.5.4:_ZN7rocksdb2DB11DeleteRangeERKNS_12WriteOptionsEPNS_18ColumnFamilyHandleERKNS_5SliceES8_
librocksdb.so.5.4:_ZN7rocksdb2DB12SingleDeleteERKNS_12WriteOptionsEPNS_18ColumnFamilyHandleERKNS_5SliceE
librocksdb.so.5.4:_ZN7rocksdb2DB15OpenForReadOnlyERKNS_7OptionsERKNSt7__cxx1112basic_stringIcSt11char_traitsIcESaIcEEEPPS0_b
librocksdb.so.5.4:_ZN7rocksdb2DB15OpenForReadOnlyERKNS_9DBOptionsERKNSt7__cxx1112basic_stringIcSt11char_traitsIcESaIcEEERKSt6vectorINS_22ColumnFamilyDescriptorESaISD_EEPSC_IPNS_18ColumnFamilyHandleESaISJ_EEPPS0_b
librocksdb.so.5.4:_ZN7rocksdb2DB16DropColumnFamilyEPNS_18ColumnFamilyHandleE
librocksdb.so.5.4:_ZN7rocksdb2DB18CreateColumnFamilyERKNS_19ColumnFamilyOptionsERKNSt7__cxx1112basic_stringIcSt11char_traitsIcESaIcEEEPPNS_18ColumnFamilyHandleE
librocksdb.so.5.4:_ZN7rocksdb2DB18DropColumnFamiliesERKSt6vectorIPNS_18ColumnFamilyHandleESaIS3_EE
librocksdb.so.5.4:_ZN7rocksdb2DB18ListColumnFamiliesERKNS_9DBOptionsERKNSt7__cxx1112basic_stringIcSt11char_traitsIcESaIcEEEPSt6vectorIS9_SaIS9_EE
librocksdb.so.5.4:_ZN7rocksdb2DB20CreateColumnFamiliesERKNS_19ColumnFamilyOptionsERKSt6vectorINSt7__cxx1112basic_stringIcSt11char_traitsIcESaIcEEESaISA_EEPS4_IPNS_18ColumnFamilyHandleESaISG_EE
librocksdb.so.5.4:_ZN7rocksdb2DB20CreateColumnFamiliesERKSt6vectorINS_22ColumnFamilyDescriptorESaIS2_EEPS1_IPNS_18ColumnFamilyHandleESaIS8_EE
librocksdb.so.5.4:_ZN7rocksdb2DB25DestroyColumnFamilyHandleEPNS_18ColumnFamilyHandleE
librocksdb.so.5.4:_ZN7rocksdb2DB3PutERKNS_12WriteOptionsEPNS_18ColumnFamilyHandleERKNS_5SliceES8_
librocksdb.so.5.4:_ZN7rocksdb2DB4OpenERKNS_7OptionsERKNSt7__cxx1112basic_stringIcSt11char_traitsIcESaIcEEEPPS0_
librocksdb.so.5.4:_ZN7rocksdb2DB4OpenERKNS_9DBOptionsERKNSt7__cxx1112basic_stringIcSt11char_traitsIcESaIcEEERKSt6vectorINS_22ColumnFamilyDescriptorESaISD_EEPSC_IPNS_18ColumnFamilyHandleESaISJ_EEPPS0_
librocksdb.so.5.4:_ZN7rocksdb2DB5MergeERKNS_12WriteOptionsEPNS_18ColumnFamilyHandleERKNS_5SliceES8_
librocksdb.so.5.4:_ZN7rocksdb2DB6DeleteERKNS_12WriteOptionsEPNS_18ColumnFamilyHandleERKNS_5SliceE
librocksdb.so.5.4:_ZN7rocksdb2DBD0Ev
librocksdb.so.5.4:_ZN7rocksdb2DBD1Ev
librocksdb.so.5.4:_ZN7rocksdb2DBD2Ev
librocksdb.so.5.4:_ZN7rocksdb30CheckConcurrentWritesSupportedERKNS_19ColumnFamilyOptionsE
librocksdb.so.5.4:_ZN7rocksdb30GetMutableDBOptionsFromStringsERKNS_16MutableDBOptionsERKSt13unordered_mapINSt7__cxx1112basic_stringIcSt11char_traitsIcESaIcEEES9_St4hashIS9_ESt8equal_toIS9_ESaISt4pairIKS9_S9_EEEPS0_
librocksdb.so.5.4:_ZN7rocksdb30GetPlainTableOptionsFromStringERKNS_17PlainTableOptionsERKNSt7__cxx1112basic_stringIcSt11char_traitsIcESaIcEEEPS0_
librocksdb.so.5.4:_ZN7rocksdb30InternalKeyPropertiesCollector11InternalAddERKNS_5SliceES3_m
librocksdb.so.5.4:_ZN7rocksdb30InternalKeyPropertiesCollector6FinishEPSt3mapINSt7__cxx1112basic_stringIcSt11char_traitsIcESaIcEEES7_St4lessIS7_ESaISt4pairIKS7_S7_EEE
librocksdb.so.5.4:_ZN7rocksdb31AutoThreadOperationStageUpdaterC1ENS_12ThreadStatus14OperationStageE
librocksdb.so.5.4:_ZN7rocksdb31AutoThreadOperationStageUpdaterC2ENS_12ThreadStatus14OperationStageE
librocksdb.so.5.4:_ZN7rocksdb31AutoThreadOperationStageUpdaterD1Ev
librocksdb.so.5.4:_ZN7rocksdb31AutoThreadOperationStageUpdaterD2Ev
librocksdb.so.5.4:_ZN7rocksdb31GetMemTableRepFactoryFromStringERKNSt7__cxx1112basic_stringIcSt11char_traitsIcESaIcEEEPSt10unique_ptrINS_18MemTableRepFactoryESt14default_deleteIS9_EE
librocksdb.so.5.4:_ZN7rocksdb31UserKeyTablePropertiesCollector11InternalAddERKNS_5SliceES3_m
librocksdb.so.5.4:_ZN7rocksdb31UserKeyTablePropertiesCollector6FinishEPSt3mapINSt7__cxx1112basic_stringIcSt11char_traitsIcESaIcEEES7_St4lessIS7_ESaISt4pairIKS7_S7_EEE
librocksdb.so.5.4:_ZN7rocksdb32GetBlockBasedTableOptionsFromMapERKNS_22BlockBasedTableOptionsERKSt13unordered_mapINSt7__cxx1112basic_stringIcSt11char_traitsIcESaIcEEES9_St4hashIS9_ESt8equal_toIS9_ESaISt4pairIKS9_S9_EEEPS0_b
librocksdb.so.5.4:_ZN7rocksdb32GetColumnFamilyOptionsFromStringERKNS_19ColumnFamilyOptionsERKNSt7__cxx1112basic_stringIcSt11char_traitsIcESaIcEEEPS0_
librocksdb.so.5.4:_ZN7rocksdb32GetStringFromColumnFamilyOptionsEPNSt7__cxx1112basic_stringIcSt11char_traitsIcESaIcEEERKNS_19ColumnFamilyOptionsERKS5_
librocksdb.so.5.4:_ZN7rocksdb33CompactOnDeletionCollectorFactory30CreateTablePropertiesCollectorENS_31TablePropertiesCollectorFactory7ContextE
librocksdb.so.5.4:_ZN7rocksdb33NotifyCollectTableCollectorsOnAddERKNS_5SliceES2_mRKSt6vectorISt10unique_ptrINS_19IntTblPropCollectorESt14default_deleteIS5_EESaIS8_EEPNS_6LoggerE
librocksdb.so.5.4:_ZN7rocksdb33SerializeSingleColumnFamilyOptionEPNSt7__cxx1112basic_stringIcSt11char_traitsIcESaIcEEERKNS_19ColumnFamilyOptionsERKS5_SB_
librocksdb.so.5.4:_ZN7rocksdb35GetBlockBasedTableOptionsFromStringERKNS_22BlockBasedTableOptionsERKNSt7__cxx1112basic_stringIcSt11char_traitsIcESaIcEEEPS0_
librocksdb.so.5.4:_ZN7rocksdb35GetStringFromBlockBasedTableOptionsEPNSt7__cxx1112basic_stringIcSt11char_traitsIcESaIcEEERKNS_22BlockBasedTableOptionsERKS5_
librocksdb.so.5.4:_ZN7rocksdb36NewCompactOnDeletionCollectorFactoryEmm
librocksdb.so.5.4:_ZN7rocksdb36NotifyCollectTableCollectorsOnFinishERKSt6vectorISt10unique_ptrINS_19IntTblPropCollectorESt14default_deleteIS2_EESaIS5_EEPNS_6LoggerEPNS_20PropertyBlockBuilderE
librocksdb.so.5.4:_ZN7rocksdb36SerializeSingleBlockBasedTableOptionEPNSt7__cxx1112basic_stringIcSt11char_traitsIcESaIcEEERKNS_22BlockBasedTableOptionsERKS5_SB_
librocksdb.so.5.4:_ZN7rocksdb37GetColumnFamilyOptionsFromMapInternalERKNS_19ColumnFamilyOptionsERKSt13unordered_mapINSt7__cxx1112basic_stringIcSt11char_traitsIcESaIcEEES9_St4hashIS9_ESt8equal_toIS9_ESaISt4pairIKS9_S9_EEEPS0_bPSt6vectorIS9_SaIS9_EE
librocksdb.so.5.4:_ZN7rocksdb3Env16GenerateUniqueIdB5cxx11Ev
librocksdb.so.5.4:_ZN7rocksdb3Env17ReuseWritableFileERKNSt7__cxx1112basic_stringIcSt11char_traitsIcESaIcEEES8_PSt10unique_ptrINS_12WritableFileESt14default_deleteISA_EERKNS_10EnvOptionsE
librocksdb.so.5.4:_ZN7rocksdb3Env25GetChildrenFileAttributesERKNSt7__cxx1112basic_stringIcSt11char_traitsIcESaIcEEEPSt6vectorINS0_14FileAttributesESaISA_EE
librocksdb.so.5.4:_ZN7rocksdb3Env7DefaultEv
librocksdb.so.5.4:_ZN7rocksdb3EnvD0Ev
librocksdb.so.5.4:_ZN7rocksdb3EnvD1Ev
librocksdb.so.5.4:_ZN7rocksdb3EnvD2Ev
librocksdb.so.5.4:_ZN7rocksdb3LogENS_12InfoLogLevelEPNS_6LoggerEPKcz
librocksdb.so.5.4:_ZN7rocksdb3LogENS_12InfoLogLevelERKSt10shared_ptrINS_6LoggerEEPKcz
librocksdb.so.5.4:_ZN7rocksdb3LogEPNS_6LoggerEPKcz
librocksdb.so.5.4:_ZN7rocksdb3LogERKSt10shared_ptrINS_6LoggerEEPKcz
librocksdb.so.5.4:_ZN7rocksdb3log6Reader10ReadRecordEPNS_5SliceEPNSt7__cxx1112basic_stringIcSt11char_traitsIcESaIcEEENS_15WALRecoveryModeE
librocksdb.so.5.4:_ZN7rocksdb3log6Reader10ReportDropEmRKNS_6StatusE
librocksdb.so.5.4:_ZN7rocksdb3log6Reader16LastRecordOffsetEv
librocksdb.so.5.4:_ZN7rocksdb3log6Reader16ReportCorruptionEmPKc
librocksdb.so.5.4:_ZN7rocksdb3log6Reader18ReadPhysicalRecordEPNS_5SliceEPm
librocksdb.so.5.4:_ZN7rocksdb3log6Reader18SkipToInitialBlockEv
librocksdb.so.5.4:_ZN7rocksdb3log6Reader8ReadMoreEPmPi
librocksdb.so.5.4:_ZN7rocksdb3log6Reader8ReporterD0Ev
librocksdb.so.5.4:_ZN7rocksdb3log6Reader8ReporterD1Ev
librocksdb.so.5.4:_ZN7rocksdb3log6Reader8ReporterD2Ev
librocksdb.so.5.4:_ZN7rocksdb3log6Reader9UnmarkEOFEv
librocksdb.so.5.4:_ZN7rocksdb3log6ReaderC1ESt10shared_ptrINS_6LoggerEEOSt10unique_ptrINS_20SequentialFileReaderESt14default_deleteIS6_EEPNS1_8ReporterEbmm
librocksdb.so.5.4:_ZN7rocksdb3log6ReaderC2ESt10shared_ptrINS_6LoggerEEOSt10unique_ptrINS_20SequentialFileReaderESt14default_deleteIS6_EEPNS1_8ReporterEbmm
librocksdb.so.5.4:_ZN7rocksdb3log6ReaderD1Ev
librocksdb.so.5.4:_ZN7rocksdb3log6ReaderD2Ev
librocksdb.so.5.4:_ZN7rocksdb3log6Writer18EmitPhysicalRecordENS0_10RecordTypeEPKcm
librocksdb.so.5.4:_ZN7rocksdb3log6Writer9AddRecordERKNS_5SliceE
librocksdb.so.5.4:_ZN7rocksdb3log6WriterC1EOSt10unique_ptrINS_18WritableFileWriterESt14default_deleteIS3_EEmb
librocksdb.so.5.4:_ZN7rocksdb3log6WriterC2EOSt10unique_ptrINS_18WritableFileWriterESt14default_deleteIS3_EEmb
librocksdb.so.5.4:_ZN7rocksdb3log6WriterD1Ev
librocksdb.so.5.4:_ZN7rocksdb3log6WriterD2Ev
librocksdb.so.5.4:_ZN7rocksdb41UncompressBlockContentsForCompressionTypeEPKcmPNS_13BlockContentsEjRKNS_5SliceENS_15CompressionTypeERKNS_18ImmutableCFOptionsE
librocksdb.so.5.4:_ZN7rocksdb4HashEPKcmj
librocksdb.so.5.4:_ZN7rocksdb4InfoEPNS_6LoggerEPKcz
librocksdb.so.5.4:_ZN7rocksdb4InfoERKSt10shared_ptrINS_6LoggerEEPKcz
librocksdb.so.5.4:_ZN7rocksdb4WarnEPNS_6LoggerEPKcz
librocksdb.so.5.4:_ZN7rocksdb4WarnERKSt10shared_ptrINS_6LoggerEEPKcz
librocksdb.so.5.4:_ZN7rocksdb4port10PrintStackEi
librocksdb.so.5.4:_ZN7rocksdb4port14PhysicalCoreIDEv
librocksdb.so.5.4:_ZN7rocksdb4port15GetMaxOpenFilesEv
librocksdb.so.5.4:_ZN7rocksdb4port24InstallStackTraceHandlerEv
librocksdb.so.5.4:_ZN7rocksdb4port5CrashERKNSt7__cxx1112basic_stringIcSt11char_traitsIcESaIcEEEi
librocksdb.so.5.4:_ZN7rocksdb4port5Mutex10AssertHeldEv
librocksdb.so.5.4:_ZN7rocksdb4port5Mutex4LockEv
librocksdb.so.5.4:_ZN7rocksdb4port5Mutex6UnlockEv
librocksdb.so.5.4:_ZN7rocksdb4port5MutexC1Eb
librocksdb.so.5.4:_ZN7rocksdb4port5MutexC2Eb
librocksdb.so.5.4:_ZN7rocksdb4port5MutexD1Ev
librocksdb.so.5.4:_ZN7rocksdb4port5MutexD2Ev
librocksdb.so.5.4:_ZN7rocksdb4port7CondVar4WaitEv
librocksdb.so.5.4:_ZN7rocksdb4port7CondVar6SignalEv
librocksdb.so.5.4:_ZN7rocksdb4port7CondVar9SignalAllEv
librocksdb.so.5.4:_ZN7rocksdb4port7CondVar9TimedWaitEm
librocksdb.so.5.4:_ZN7rocksdb4port7CondVarC1EPNS0_5MutexE
librocksdb.so.5.4:_ZN7rocksdb4port7CondVarC2EPNS0_5MutexE
librocksdb.so.5.4:_ZN7rocksdb4port7CondVarD1Ev
librocksdb.so.5.4:_ZN7rocksdb4port7CondVarD2Ev
librocksdb.so.5.4:_ZN7rocksdb4port7RWMutex10ReadUnlockEv
librocksdb.so.5.4:_ZN7rocksdb4port7RWMutex11WriteUnlockEv
librocksdb.so.5.4:_ZN7rocksdb4port7RWMutex8ReadLockEv
librocksdb.so.5.4:_ZN7rocksdb4port7RWMutex9WriteLockEv
librocksdb.so.5.4:_ZN7rocksdb4port7RWMutexC1Ev
librocksdb.so.5.4:_ZN7rocksdb4port7RWMutexC2Ev
librocksdb.so.5.4:_ZN7rocksdb4port7RWMutexD1Ev
librocksdb.so.5.4:_ZN7rocksdb4port7RWMutexD2Ev
librocksdb.so.5.4:_ZN7rocksdb4port8InitOnceEPiPFvvE
librocksdb.so.5.4:_ZN7rocksdb4trimERKNSt7__cxx1112basic_stringIcSt11char_traitsIcESaIcEEE
librocksdb.so.5.4:_ZN7rocksdb5Arena15AllocateAlignedEmmPNS_6LoggerE
librocksdb.so.5.4:_ZN7rocksdb5Arena16AllocateFallbackEmb
librocksdb.so.5.4:_ZN7rocksdb5Arena16AllocateNewBlockEm
librocksdb.so.5.4:_ZN7rocksdb5Arena20AllocateFromHugePageEm
librocksdb.so.5.4:_ZN7rocksdb5ArenaC1Emm
librocksdb.so.5.4:_ZN7rocksdb5ArenaC2Emm
librocksdb.so.5.4:_ZN7rocksdb5ArenaD0Ev
librocksdb.so.5.4:_ZN7rocksdb5ArenaD1Ev
librocksdb.so.5.4:_ZN7rocksdb5ArenaD2Ev
librocksdb.so.5.4:_ZN7rocksdb5Block11NewIteratorEPKNS_10ComparatorEPNS_9BlockIterEbPNS_10StatisticsE
librocksdb.so.5.4:_ZN7rocksdb5Block19SetBlockPrefixIndexEPNS_16BlockPrefixIndexE
librocksdb.so.5.4:_ZN7rocksdb5BlockC1EONS_13BlockContentsEmmPNS_10StatisticsE
librocksdb.so.5.4:_ZN7rocksdb5BlockC2EONS_13BlockContentsEmmPNS_10StatisticsE
librocksdb.so.5.4:_ZN7rocksdb5DebugEPNS_6LoggerEPKcz
librocksdb.so.5.4:_ZN7rocksdb5DebugERKSt10shared_ptrINS_6LoggerEEPKcz
librocksdb.so.5.4:_ZN7rocksdb5ErrorEPNS_6LoggerEPKcz
librocksdb.so.5.4:_ZN7rocksdb5ErrorERKSt10shared_ptrINS_6LoggerEEPKcz
librocksdb.so.5.4:_ZN7rocksdb5FatalEPNS_6LoggerEPKcz
librocksdb.so.5.4:_ZN7rocksdb5FatalERKSt10shared_ptrINS_6LoggerEEPKcz
librocksdb.so.5.4:_ZN7rocksdb5Index26CreateIndexFromDescriptionERKNS_12JSONDocumentERKNSt7__cxx1112basic_stringIcSt11char_traitsIcESaIcEEE
librocksdb.so.5.4:_ZN7rocksdb5SliceC1ERKNS_10SlicePartsEPNSt7__cxx1112basic_stringIcSt11char_traitsIcESaIcEEE
librocksdb.so.5.4:_ZN7rocksdb5SliceC2ERKNS_10SlicePartsEPNSt7__cxx1112basic_stringIcSt11char_traitsIcESaIcEEE
librocksdb.so.5.4:_ZN7rocksdb5XXH32EPKvij
librocksdb.so.5.4:_ZN7rocksdb5toHexEh
librocksdb.so.5.4:_ZN7rocksdb6DBImpl10DelayWriteEmRKNS_12WriteOptionsE
librocksdb.so.5.4:_ZN7rocksdb6DBImpl10DeleteFileENSt7__cxx1112basic_stringIcSt11char_traitsIcESaIcEEE
librocksdb.so.5.4:_ZN7rocksdb6DBImpl10ReFitLevelEPNS_16ColumnFamilyDataEii
librocksdb.so.5.4:_ZN7rocksdb6DBImpl10ResetStatsEv
librocksdb.so.5.4:_ZN7rocksdb6DBImpl10SetOptionsEPNS_18ColumnFamilyHandleERKSt13unordered_mapINSt7__cxx1112basic_stringIcSt11char_traitsIcESaIcEEES9_St4hashIS9_ESt8equal_toIS9_ESaISt4pairIKS9_S9_EEE
librocksdb.so.5.4:_ZN7rocksdb6DBImpl10WriteToWALERKNS_10autovectorIPNS_11WriteThread6WriterELm8EEEPNS_3log6WriterEbbm
librocksdb.so.5.4:_ZN7rocksdb6DBImpl11BGWorkFlushEPv
librocksdb.so.5.4:_ZN7rocksdb6DBImpl11BGWorkPurgeEPv
librocksdb.so.5.4:_ZN7rocksdb6DBImpl11Directories10GetDataDirEm
librocksdb.so.5.4:_ZN7rocksdb6DBImpl11Directories14SetDirectoriesEPNS_3EnvERKNSt7__cxx1112basic_stringIcSt11char_traitsIcESaIcEEESB_RKSt6vectorINS_6DbPathESaISD_EE
librocksdb.so.5.4:_ZN7rocksdb6DBImpl11GetPropertyEPNS_18ColumnFamilyHandleERKNS_5SliceEPNSt7__cxx1112basic_stringIcSt11char_traitsIcESaIcEEE
librocksdb.so.5.4:_ZN7rocksdb6DBImpl11GetSnapshotEv
librocksdb.so.5.4:_ZN7rocksdb6DBImpl11KeyMayExistERKNS_11ReadOptionsEPNS_18ColumnFamilyHandleERKNS_5SliceEPNSt7__cxx1112basic_stringIcSt11char_traitsIcESaIcEEEPb
librocksdb.so.5.4:_ZN7rocksdb6DBImpl11NewIteratorERKNS_11ReadOptionsEPNS_18ColumnFamilyHandleE
librocksdb.so.5.4:_ZN7rocksdb6DBImpl12CompactFilesERKNS_17CompactionOptionsEPNS_18ColumnFamilyHandleERKSt6vectorINSt7__cxx1112basic_stringIcSt11char_traitsIcESaIcEEESaISC_EEii
librocksdb.so.5.4:_ZN7rocksdb6DBImpl12CompactRangeERKNS_19CompactRangeOptionsEPNS_18ColumnFamilyHandleEPKNS_5SliceES8_
librocksdb.so.5.4:_ZN7rocksdb6DBImpl12GetLiveFilesERSt6vectorINSt7__cxx1112basic_stringIcSt11char_traitsIcESaIcEEESaIS7_EEPmb
librocksdb.so.5.4:_ZN7rocksdb6DBImpl12NewIteratorsERKNS_11ReadOptionsERKSt6vectorIPNS_18ColumnFamilyHandleESaIS6_EEPS4_IPNS_8IteratorESaISC_EE
librocksdb.so.5.4:_ZN7rocksdb6DBImpl12NumberLevelsEPNS_18ColumnFamilyHandleE
librocksdb.so.5.4:_ZN7rocksdb6DBImpl12SetDBOptionsERKSt13unordered_mapINSt7__cxx1112basic_stringIcSt11char_traitsIcESaIcEEES7_St4hashIS7_ESt8equal_toIS7_ESaISt4pairIKS7_S7_EEE
librocksdb.so.5.4:_ZN7rocksdb6DBImpl12SingleDeleteERKNS_12WriteOptionsEPNS_18ColumnFamilyHandleERKNS_5SliceE
librocksdb.so.5.4:_ZN7rocksdb6DBImpl13FlushMemTableEPNS_16ColumnFamilyDataERKNS_12FlushOptionsEb
librocksdb.so.5.4:_ZN7rocksdb6DBImpl13HandleWALFullEPNS0_12WriteContextE
librocksdb.so.5.4:_ZN7rocksdb6DBImpl13SchedulePurgeEv
librocksdb.so.5.4:_ZN7rocksdb6DBImpl14GetIntPropertyEPNS_18ColumnFamilyHandleERKNS_5SliceEPm
librocksdb.so.5.4:_ZN7rocksdb6DBImpl14GetMapPropertyEPNS_18ColumnFamilyHandleERKNS_5SliceEPSt3mapINSt7__cxx1112basic_stringIcSt11char_traitsIcESaIcEEEdSt4lessISC_ESaISt4pairIKSC_dEEE
librocksdb.so.5.4:_ZN7rocksdb6DBImpl14MarkLogsSyncedEmbRKNS_6StatusE
librocksdb.so.5.4:_ZN7rocksdb6DBImpl14MaybeDumpStatsEv
librocksdb.so.5.4:_ZN7rocksdb6DBImpl14SwitchMemtableEPNS_16ColumnFamilyDataEPNS0_12WriteContextE
librocksdb.so.5.4:_ZN7rocksdb6DBImpl14SyncClosedLogsEPNS_10JobContextE
librocksdb.so.5.4:_ZN7rocksdb6DBImpl15AddToFlushQueueEPNS_16ColumnFamilyDataE
librocksdb.so.5.4:_ZN7rocksdb6DBImpl15BackgroundFlushEPbPNS_10JobContextEPNS_9LogBufferE
librocksdb.so.5.4:_ZN7rocksdb6DBImpl15GetSnapshotImplEb
librocksdb.so.5.4:_ZN7rocksdb6DBImpl15GetUpdatesSinceEmPSt10unique_ptrINS_22TransactionLogIteratorESt14default_deleteIS2_EERKNS2_11ReadOptionsE
librocksdb.so.5.4:_ZN7rocksdb6DBImpl15PreprocessWriteERKNS_12WriteOptionsEbPbPNS0_12WriteContextE
librocksdb.so.5.4:_ZN7rocksdb6DBImpl15PrintStatisticsEv
librocksdb.so.5.4:_ZN7rocksdb6DBImpl15RecoverLogFilesERKSt6vectorImSaImEEPmb
librocksdb.so.5.4:_ZN7rocksdb6DBImpl15ReleaseSnapshotEPKNS_8SnapshotE
librocksdb.so.5.4:_ZN7rocksdb6DBImpl15ScheduleFlushesEPNS0_12WriteContextE
librocksdb.so.5.4:_ZN7rocksdb6DBImpl16BGWorkCompactionEPv
librocksdb.so.5.4:_ZN7rocksdb6DBImpl16CheckConsistencyEv
librocksdb.so.5.4:_ZN7rocksdb6DBImpl16CompactFilesImplERKNS_17CompactionOptionsEPNS_16ColumnFamilyDataEPNS_7VersionERKSt6vectorINSt7__cxx1112basic_stringIcSt11char_traitsIcESaIcEEESaISE_EEiiPNS_10JobContextEPNS_9LogBufferE
librocksdb.so.5.4:_ZN7rocksdb6DBImpl16DropColumnFamilyEPNS_18ColumnFamilyHandleE
librocksdb.so.5.4:_ZN7rocksdb6DBImpl16WriteOptionsFileEbb
librocksdb.so.5.4:_ZN7rocksdb6DBImpl17FindObsoleteFilesEPNS_10JobContextEbb
librocksdb.so.5.4:_ZN7rocksdb6DBImpl17GetSortedWalFilesERSt6vectorISt10unique_ptrINS_7LogFileESt14default_deleteIS3_EESaIS6_EE
librocksdb.so.5.4:_ZN7rocksdb6DBImpl17WaitForIngestFileEv
librocksdb.so.5.4:_ZN7rocksdb6DBImpl17WriteWithCallbackERKNS_12WriteOptionsEPNS_10WriteBatchEPNS_13WriteCallbackE
librocksdb.so.5.4:_ZN7rocksdb6DBImpl18CreateColumnFamilyERKNS_19ColumnFamilyOptionsERKNSt7__cxx1112basic_stringIcSt11char_traitsIcESaIcEEEPPNS_18ColumnFamilyHandleE
librocksdb.so.5.4:_ZN7rocksdb6DBImpl18DeleteFilesInRangeEPNS_18ColumnFamilyHandleEPKNS_5SliceES5_
librocksdb.so.5.4:_ZN7rocksdb6DBImpl18DropColumnFamiliesERKSt6vectorIPNS_18ColumnFamilyHandleESaIS3_EE
librocksdb.so.5.4:_ZN7rocksdb6DBImpl18IngestExternalFileEPNS_18ColumnFamilyHandleERKSt6vectorINSt7__cxx1112basic_stringIcSt11char_traitsIcESaIcEEESaIS9_EERKNS_25IngestExternalFileOptionsE
librocksdb.so.5.4:_ZN7rocksdb6DBImpl18MinLogNumberToKeepEv
librocksdb.so.5.4:_ZN7rocksdb6DBImpl18NotifyOnFlushBeginEPNS_16ColumnFamilyDataEPNS_12FileMetaDataERKNS_16MutableCFOptionsEiNS_15TablePropertiesE
librocksdb.so.5.4:_ZN7rocksdb6DBImpl18PurgeObsoleteFilesERKNS_10JobContextEb
librocksdb.so.5.4:_ZN7rocksdb6DBImpl18UnscheduleCallbackEPv
librocksdb.so.5.4:_ZN7rocksdb6DBImpl19AddManualCompactionEPNS0_16ManualCompactionE
librocksdb.so.5.4:_ZN7rocksdb6DBImpl19BackgroundCallFlushEv
librocksdb.so.5.4:_ZN7rocksdb6DBImpl19BackgroundCallPurgeEv
librocksdb.so.5.4:_ZN7rocksdb6DBImpl19DeleteObsoleteFilesEv
librocksdb.so.5.4:_ZN7rocksdb6DBImpl19EnableFileDeletionsEb
librocksdb.so.5.4:_ZN7rocksdb6DBImpl19GetApproximateSizesEPNS_18ColumnFamilyHandleEPKNS_5RangeEiPmh
librocksdb.so.5.4:_ZN7rocksdb6DBImpl19NewInternalIteratorEPNS_5ArenaEPNS_18RangeDelAggregatorEPNS_18ColumnFamilyHandleE
librocksdb.so.5.4:_ZN7rocksdb6DBImpl19NewInternalIteratorERKNS_11ReadOptionsEPNS_16ColumnFamilyDataEPNS_12SuperVersionEPNS_5ArenaEPNS_18RangeDelAggregatorE
librocksdb.so.5.4:_ZN7rocksdb6DBImpl19PauseBackgroundWorkEv
librocksdb.so.5.4:_ZN7rocksdb6DBImpl19RunManualCompactionEPNS_16ColumnFamilyDataEiijPKNS_5SliceES5_bb
librocksdb.so.5.4:_ZN7rocksdb6DBImpl19SuggestCompactRangeEPNS_18ColumnFamilyHandleEPKNS_5SliceES5_
librocksdb.so.5.4:_ZN7rocksdb6DBImpl20AddToCompactionQueueEPNS_16ColumnFamilyDataE
librocksdb.so.5.4:_ZN7rocksdb6DBImpl20BackgroundCompactionEPbPNS_10JobContextEPNS_9LogBufferEPv
librocksdb.so.5.4:_ZN7rocksdb6DBImpl20CreateColumnFamiliesERKNS_19ColumnFamilyOptionsERKSt6vectorINSt7__cxx1112basic_stringIcSt11char_traitsIcESaIcEEESaISA_EEPS4_IPNS_18ColumnFamilyHandleESaISG_EE
librocksdb.so.5.4:_ZN7rocksdb6DBImpl20CreateColumnFamiliesERKSt6vectorINS_22ColumnFamilyDescriptorESaIS2_EEPS1_IPNS_18ColumnFamilyHandleESaIS8_EE
librocksdb.so.5.4:_ZN7rocksdb6DBImpl20DisableFileDeletionsEv
librocksdb.so.5.4:_ZN7rocksdb6DBImpl20DropColumnFamilyImplEPNS_18ColumnFamilyHandleE
librocksdb.so.5.4:_ZN7rocksdb6DBImpl20EnableAutoCompactionERKSt6vectorIPNS_18ColumnFamilyHandleESaIS3_EE
librocksdb.so.5.4:_ZN7rocksdb6DBImpl20GetLiveFilesMetaDataEPSt6vectorINS_16LiveFileMetaDataESaIS2_EE
librocksdb.so.5.4:_ZN7rocksdb6DBImpl20HaveManualCompactionEPNS_16ColumnFamilyDataE
librocksdb.so.5.4:_ZN7rocksdb6DBImpl20SchedulePendingFlushEPNS_16ColumnFamilyDataE
librocksdb.so.5.4:_ZN7rocksdb6DBImpl20SchedulePendingPurgeENSt7__cxx1112basic_stringIcSt11char_traitsIcESaIcEEENS_8FileTypeEmji
librocksdb.so.5.4:_ZN7rocksdb6DBImpl20WaitForFlushMemTableEPNS_16ColumnFamilyDataE
librocksdb.so.5.4:_ZN7rocksdb6DBImpl21GetAndRefSuperVersionEPNS_16ColumnFamilyDataE
librocksdb.so.5.4:_ZN7rocksdb6DBImpl21GetAndRefSuperVersionEj
librocksdb.so.5.4:_ZN7rocksdb6DBImpl21GetColumnFamilyHandleEj
librocksdb.so.5.4:_ZN7rocksdb6DBImpl21HandleWriteBufferFullEPNS0_12WriteContextE
librocksdb.so.5.4:_ZN7rocksdb6DBImpl21MaxMemCompactionLevelEPNS_18ColumnFamilyHandleE
librocksdb.so.5.4:_ZN7rocksdb6DBImpl22ContinueBackgroundWorkEv
librocksdb.so.5.4:_ZN7rocksdb6DBImpl22CreateColumnFamilyImplERKNS_19ColumnFamilyOptionsERKNSt7__cxx1112basic_stringIcSt11char_traitsIcESaIcEEEPPNS_18ColumnFamilyHandleE
librocksdb.so.5.4:_ZN7rocksdb6DBImpl22DeleteObsoleteFileImplENS_6StatusEiRKNSt7__cxx1112basic_stringIcSt11char_traitsIcESaIcEEENS_8FileTypeEmj
librocksdb.so.5.4:_ZN7rocksdb6DBImpl22GetIntPropertyInternalEPNS_16ColumnFamilyDataERKNS_14DBPropertyInfoEbPm
librocksdb.so.5.4:_ZN7rocksdb6DBImpl22Level0StopWriteTriggerEPNS_18ColumnFamilyHandleE
librocksdb.so.5.4:_ZN7rocksdb6DBImpl22NotifyOnFlushCompletedEPNS_16ColumnFamilyDataEPNS_12FileMetaDataERKNS_16MutableCFOptionsEiNS_15TablePropertiesE
librocksdb.so.5.4:_ZN7rocksdb6DBImpl22NotifyOnMemTableSealedEPNS_16ColumnFamilyDataERKNS_12MemTableInfoE
librocksdb.so.5.4:_ZN7rocksdb6DBImpl22PopFirstFromFlushQueueEv
librocksdb.so.5.4:_ZN7rocksdb6DBImpl22RemoveManualCompactionEPNS0_16ManualCompactionE
librocksdb.so.5.4:_ZN7rocksdb6DBImpl23CancelAllBackgroundWorkEb
librocksdb.so.5.4:_ZN7rocksdb6DBImpl23CreateArchivalDirectoryEv
librocksdb.so.5.4:_ZN7rocksdb6DBImpl23GetColumnFamilyMetaDataEPNS_18ColumnFamilyHandleEPNS_20ColumnFamilyMetaDataE
librocksdb.so.5.4:_ZN7rocksdb6DBImpl23GetLatestSequenceForKeyEPNS_12SuperVersionERKNS_5SliceEbPmPb
librocksdb.so.5.4:_ZN7rocksdb6DBImpl24BackgroundCallCompactionEPv
librocksdb.so.5.4:_ZN7rocksdb6DBImpl24GetAggregatedIntPropertyERKNS_5SliceEPm
librocksdb.so.5.4:_ZN7rocksdb6DBImpl24GetPropertiesOfAllTablesEPNS_18ColumnFamilyHandleEPSt13unordered_mapINSt7__cxx1112basic_stringIcSt11char_traitsIcESaIcEEESt10shared_ptrIKNS_15TablePropertiesEESt4hashIS9_ESt8equal_toIS9_ESaISt4pairIKS9_SD_EEE
librocksdb.so.5.4:_ZN7rocksdb6DBImpl24ScheduleBgLogWriterCloseEPNS_10JobContextE
librocksdb.so.5.4:_ZN7rocksdb6DBImpl25FlushMemTableToOutputFileEPNS_16ColumnFamilyDataERKNS_16MutableCFOptionsEPbPNS_10JobContextEPNS_9LogBufferE
librocksdb.so.5.4:_ZN7rocksdb6DBImpl25SchedulePendingCompactionEPNS_16ColumnFamilyDataE
librocksdb.so.5.4:_ZN7rocksdb6DBImpl26DeleteObsoleteOptionsFilesEv
librocksdb.so.5.4:_ZN7rocksdb6DBImpl26HasPendingManualCompactionEv
librocksdb.so.5.4:_ZN7rocksdb6DBImpl27GetApproximateMemTableStatsEPNS_18ColumnFamilyHandleERKNS_5RangeEPmS6_
librocksdb.so.5.4:_ZN7rocksdb6DBImpl27NotifyOnCompactionCompletedEPNS_16ColumnFamilyDataEPNS_10CompactionERKNS_6StatusERKNS_18CompactionJobStatsEi
librocksdb.so.5.4:_ZN7rocksdb6DBImpl27PopFirstFromCompactionQueueEv
librocksdb.so.5.4:_ZN7rocksdb6DBImpl27RenameTempFileToOptionsFileERKNSt7__cxx1112basic_stringIcSt11char_traitsIcESaIcEEE
librocksdb.so.5.4:_ZN7rocksdb6DBImpl27ShouldntRunManualCompactionEPNS0_16ManualCompactionE
librocksdb.so.5.4:_ZN7rocksdb6DBImpl27WriteLevel0TableForRecoveryEiPNS_16ColumnFamilyDataEPNS_8MemTableEPNS_11VersionEditE
librocksdb.so.5.4:_ZN7rocksdb6DBImpl28FindMinimumEmptyLevelFittingEPNS_16ColumnFamilyDataERKNS_16MutableCFOptionsEi
librocksdb.so.5.4:_ZN7rocksdb6DBImpl28GetPropertiesOfTablesInRangeEPNS_18ColumnFamilyHandleEPKNS_5RangeEmPSt13unordered_mapINSt7__cxx1112basic_stringIcSt11char_traitsIcESaIcEEESt10shared_ptrIKNS_15TablePropertiesEESt4hashISC_ESt8equal_toISC_ESaISt4pairIKSC_SG_EEE
librocksdb.so.5.4:_ZN7rocksdb6DBImpl28HasActiveSnapshotLaterThanSNEm
librocksdb.so.5.4:_ZN7rocksdb6DBImpl28HasExclusiveManualCompactionEv
librocksdb.so.5.4:_ZN7rocksdb6DBImpl28NotifyOnExternalFileIngestedEPNS_16ColumnFamilyDataERKNS_27ExternalSstFileIngestionJobE
librocksdb.so.5.4:_ZN7rocksdb6DBImpl28ReturnAndCleanupSuperVersionEPNS_16ColumnFamilyDataEPNS_12SuperVersionE
librocksdb.so.5.4:_ZN7rocksdb6DBImpl28ReturnAndCleanupSuperVersionEjPNS_12SuperVersionE
librocksdb.so.5.4:_ZN7rocksdb6DBImpl29GetColumnFamilyHandleUnlockedEj
librocksdb.so.5.4:_ZN7rocksdb6DBImpl30MarkLogAsContainingPrepSectionEm
librocksdb.so.5.4:_ZN7rocksdb6DBImpl30MaybeScheduleFlushOrCompactionEv
librocksdb.so.5.4:_ZN7rocksdb6DBImpl33GetEarliestMemTableSequenceNumberEPNS_12SuperVersionEb
librocksdb.so.5.4:_ZN7rocksdb6DBImpl33MarkLogAsHavingPrepSectionFlushedEm
librocksdb.so.5.4:_ZN7rocksdb6DBImpl34FindMinPrepLogReferencedByMemTableEv
librocksdb.so.5.4:_ZN7rocksdb6DBImpl34InstallSuperVersionAndScheduleWorkEPNS_16ColumnFamilyDataEPNS_12SuperVersionERKNS_16MutableCFOptionsE
librocksdb.so.5.4:_ZN7rocksdb6DBImpl35FindMinLogContainingOutstandingPrepEv
librocksdb.so.5.4:_ZN7rocksdb6DBImpl35GetSnapshotForWriteConflictBoundaryEv
librocksdb.so.5.4:_ZN7rocksdb6DBImpl35ReleaseFileNumberFromPendingOutputsESt14_List_iteratorImE
librocksdb.so.5.4:_ZN7rocksdb6DBImpl3GetERKNS_11ReadOptionsEPNS_18ColumnFamilyHandleERKNS_5SliceEPNS_13PinnableSliceE
librocksdb.so.5.4:_ZN7rocksdb6DBImpl3PutERKNS_12WriteOptionsEPNS_18ColumnFamilyHandleERKNS_5SliceES8_
librocksdb.so.5.4:_ZN7rocksdb6DBImpl40CaptureCurrentFileNumberInPendingOutputsEv
librocksdb.so.5.4:_ZN7rocksdb6DBImpl41InstallSuperVersionAndScheduleWorkWrapperEPNS_16ColumnFamilyDataEPNS_10JobContextERKNS_16MutableCFOptionsE
librocksdb.so.5.4:_ZN7rocksdb6DBImpl5FlushERKNS_12FlushOptionsEPNS_18ColumnFamilyHandleE
librocksdb.so.5.4:_ZN7rocksdb6DBImpl5MergeERKNS_12WriteOptionsEPNS_18ColumnFamilyHandleERKNS_5SliceES8_
librocksdb.so.5.4:_ZN7rocksdb6DBImpl5NewDBEv
librocksdb.so.5.4:_ZN7rocksdb6DBImpl5WriteERKNS_12WriteOptionsEPNS_10WriteBatchE
librocksdb.so.5.4:_ZN7rocksdb6DBImpl6DeleteERKNS_12WriteOptionsEPNS_18ColumnFamilyHandleERKNS_5SliceE
librocksdb.so.5.4:_ZN7rocksdb6DBImpl7GetImplERKNS_11ReadOptionsEPNS_18ColumnFamilyHandleERKNS_5SliceEPNS_13PinnableSliceEPb
librocksdb.so.5.4:_ZN7rocksdb6DBImpl7RecoverERKSt6vectorINS_22ColumnFamilyDescriptorESaIS2_EEbbb
librocksdb.so.5.4:_ZN7rocksdb6DBImpl7SyncWALEv
librocksdb.so.5.4:_ZN7rocksdb6DBImpl8MultiGetERKNS_11ReadOptionsERKSt6vectorIPNS_18ColumnFamilyHandleESaIS6_EERKS4_INS_5SliceESaISB_EEPS4_INSt7__cxx1112basic_stringIcSt11char_traitsIcESaIcEEESaISL_EE
librocksdb.so.5.4:_ZN7rocksdb6DBImpl9MCOverlapEPNS0_16ManualCompactionES2_
librocksdb.so.5.4:_ZN7rocksdb6DBImpl9PromoteL0EPNS_18ColumnFamilyHandleEi
librocksdb.so.5.4:_ZN7rocksdb6DBImpl9WriteImplERKNS_12WriteOptionsEPNS_10WriteBatchEPNS_13WriteCallbackEPmmb
librocksdb.so.5.4:_ZN7rocksdb6DBImplC1ERKNS_9DBOptionsERKNSt7__cxx1112basic_stringIcSt11char_traitsIcESaIcEEE
librocksdb.so.5.4:_ZN7rocksdb6DBImplC2ERKNS_9DBOptionsERKNSt7__cxx1112basic_stringIcSt11char_traitsIcESaIcEEE
librocksdb.so.5.4:_ZN7rocksdb6DBImplD0Ev
librocksdb.so.5.4:_ZN7rocksdb6DBImplD1Ev
librocksdb.so.5.4:_ZN7rocksdb6DBImplD2Ev
librocksdb.so.5.4:_ZN7rocksdb6DBIter10SeekToLastEv
librocksdb.so.5.4:_ZN7rocksdb6DBIter11SeekForPrevERKNS_5SliceE
librocksdb.so.5.4:_ZN7rocksdb6DBIter11SeekToFirstEv
librocksdb.so.5.4:_ZN7rocksdb6DBIter12PrevInternalEv
librocksdb.so.5.4:_ZN7rocksdb6DBIter15FindNextUserKeyEv
librocksdb.so.5.4:_ZN7rocksdb6DBIter15FindPrevUserKeyEv
librocksdb.so.5.4:_ZN7rocksdb6DBIter16FindParseableKeyEPNS_17ParsedInternalKeyENS0_9DirectionE
librocksdb.so.5.4:_ZN7rocksdb6DBIter16ReverseToForwardEv
librocksdb.so.5.4:_ZN7rocksdb6DBIter17ReverseToBackwardEv
librocksdb.so.5.4:_ZN7rocksdb6DBIter19MergeValuesNewToOldEv
librocksdb.so.5.4:_ZN7rocksdb6DBIter22FindValueForCurrentKeyEv
librocksdb.so.5.4:_ZN7rocksdb6DBIter25FindNextUserEntryInternalEbb
librocksdb.so.5.4:_ZN7rocksdb6DBIter26TooManyInternalKeysSkippedEb
librocksdb.so.5.4:_ZN7rocksdb6DBIter31FindValueForCurrentKeyUsingSeekEv
librocksdb.so.5.4:_ZN7rocksdb6DBIter4NextEv
librocksdb.so.5.4:_ZN7rocksdb6DBIter4PrevEv
librocksdb.so.5.4:_ZN7rocksdb6DBIter4SeekERKNS_5SliceE
librocksdb.so.5.4:_ZN7rocksdb6Filter11ParseFilterERKNS_12JSONDocumentE
librocksdb.so.5.4:_ZN7rocksdb6Filter8Interval16UpdateLowerBoundERKNS_12JSONDocumentEb
librocksdb.so.5.4:_ZN7rocksdb6Filter8Interval16UpdateUpperBoundERKNS_12JSONDocumentEb
librocksdb.so.5.4:_ZN7rocksdb6Footer10DecodeFromEPNS_5SliceE
librocksdb.so.5.4:_ZN7rocksdb6FooterC1Emj
librocksdb.so.5.4:_ZN7rocksdb6FooterC2Emj
librocksdb.so.5.4:_ZN7rocksdb6HeaderEPNS_6LoggerEPKcz
librocksdb.so.5.4:_ZN7rocksdb6HeaderERKSt10shared_ptrINS_6LoggerEEPKcz
librocksdb.so.5.4:_ZN7rocksdb6Logger4LogvENS_12InfoLogLevelEPKcP13__va_list_tag
librocksdb.so.5.4:_ZN7rocksdb6LoggerD0Ev
librocksdb.so.5.4:_ZN7rocksdb6LoggerD1Ev
librocksdb.so.5.4:_ZN7rocksdb6LoggerD2Ev
librocksdb.so.5.4:_ZN7rocksdb6Random14GetTLSInstanceEv
librocksdb.so.5.4:_ZN7rocksdb6Status9CopyStateEPKc
librocksdb.so.5.4:_ZN7rocksdb6StatusC1ENS0_4CodeENS0_7SubCodeERKNS_5SliceES5_
librocksdb.so.5.4:_ZN7rocksdb6StatusC2ENS0_4CodeENS0_7SubCodeERKNS_5SliceES5_
librocksdb.so.5.4:_ZN7rocksdb6crc32c20IsFastCrc32SupportedEv
librocksdb.so.5.4:_ZN7rocksdb6crc32c6ExtendEjPKcm
librocksdb.so.5.4:_ZN7rocksdb7FadviseEilmi
librocksdb.so.5.4:_ZN7rocksdb7HdfsEnv17NewSequentialFileERKNSt7__cxx1112basic_stringIcSt11char_traitsIcESaIcEEEPSt10unique_ptrINS_14SequentialFileESt14default_deleteISA_EERKNS_10EnvOptionsE
librocksdb.so.5.4:_ZN7rocksdb7LDBTool3RunEiPPcNS_7OptionsERKNS_10LDBOptionsEPKSt6vectorINS_22ColumnFamilyDescriptorESaIS8_EE
librocksdb.so.5.4:_ZN7rocksdb7Options11OldDefaultsEii
librocksdb.so.5.4:_ZN7rocksdb7Options18OptimizeForSmallDbEv
librocksdb.so.5.4:_ZN7rocksdb7Options18PrepareForBulkLoadEv
librocksdb.so.5.4:_ZN7rocksdb7Version12AddIteratorsERKNS_11ReadOptionsERKNS_10EnvOptionsEPNS_20MergeIteratorBuilderEPNS_18RangeDelAggregatorE
librocksdb.so.5.4:_ZN7rocksdb7Version12AddLiveFilesEPSt6vectorINS_14FileDescriptorESaIS2_EE
librocksdb.so.5.4:_ZN7rocksdb7Version12PrepareApplyERKNS_16MutableCFOptionsEb
librocksdb.so.5.4:_ZN7rocksdb7Version15IsFilterSkippedEib
librocksdb.so.5.4:_ZN7rocksdb7Version20AddIteratorsForLevelERKNS_11ReadOptionsERKNS_10EnvOptionsEPNS_20MergeIteratorBuilderEiPNS_18RangeDelAggregatorE
librocksdb.so.5.4:_ZN7rocksdb7Version22UpdateAccumulatedStatsEb
librocksdb.so.5.4:_ZN7rocksdb7Version23GetColumnFamilyMetaDataEPNS_20ColumnFamilyMetaDataE
librocksdb.so.5.4:_ZN7rocksdb7Version24GetPropertiesOfAllTablesEPSt13unordered_mapINSt7__cxx1112basic_stringIcSt11char_traitsIcESaIcEEESt10shared_ptrIKNS_15TablePropertiesEESt4hashIS7_ESt8equal_toIS7_ESaISt4pairIKS7_SB_EEE
librocksdb.so.5.4:_ZN7rocksdb7Version24GetPropertiesOfAllTablesEPSt13unordered_mapINSt7__cxx1112basic_stringIcSt11char_traitsIcESaIcEEESt10shared_ptrIKNS_15TablePropertiesEESt4hashIS7_ESt8equal_toIS7_ESaISt4pairIKS7_SB_EEEi
librocksdb.so.5.4:_ZN7rocksdb7Version27MaybeInitializeFileMetaDataEPNS_12FileMetaDataE
librocksdb.so.5.4:_ZN7rocksdb7Version28GetAggregatedTablePropertiesEPSt10shared_ptrIKNS_15TablePropertiesEEi
librocksdb.so.5.4:_ZN7rocksdb7Version28GetMemoryUsageByTableReadersEv
librocksdb.so.5.4:_ZN7rocksdb7Version3GetERKNS_11ReadOptionsERKNS_9LookupKeyEPNS_13PinnableSliceEPNS_6StatusEPNS_12MergeContextEPNS_18RangeDelAggregatorEPbSF_Pm
librocksdb.so.5.4:_ZN7rocksdb7Version3RefEv
librocksdb.so.5.4:_ZN7rocksdb7Version5UnrefEv
librocksdb.so.5.4:_ZN7rocksdb7VersionC1EPNS_16ColumnFamilyDataEPNS_10VersionSetEm
librocksdb.so.5.4:_ZN7rocksdb7VersionC2EPNS_16ColumnFamilyDataEPNS_10VersionSetEm
librocksdb.so.5.4:_ZN7rocksdb7VersionD1Ev
librocksdb.so.5.4:_ZN7rocksdb7VersionD2Ev
librocksdb.so.5.4:_ZN7rocksdb7blob_db10BlobDBImpl10AppendBlobERKSt10shared_ptrINS0_8BlobFileEERKNSt7__cxx1112basic_stringIcSt11char_traitsIcESaIcEEERKNS_5SliceESH_PSC_
librocksdb.so.5.4:_ZN7rocksdb7blob_db10BlobDBImpl10FsyncFilesEb
librocksdb.so.5.4:_ZN7rocksdb7blob_db10BlobDBImpl10OpenPhase1Ev
librocksdb.so.5.4:_ZN7rocksdb7blob_db10BlobDBImpl10PutWithTTLERKNS_12WriteOptionsEPNS_18ColumnFamilyHandleERKNS_5SliceES9_i
librocksdb.so.5.4:_ZN7rocksdb7blob_db10BlobDBImpl11NewBlobFileERKNSt7__cxx1112basic_stringIcSt11char_traitsIcESaIcEEE
librocksdb.so.5.4:_ZN7rocksdb7blob_db10BlobDBImpl11NewIteratorERKNS_11ReadOptionsEPNS_18ColumnFamilyHandleE
librocksdb.so.5.4:_ZN7rocksdb7blob_db10BlobDBImpl11SanityCheckEb
librocksdb.so.5.4:_ZN7rocksdb7blob_db10BlobDBImpl12LinkToBaseDBEPNS_2DBE
librocksdb.so.5.4:_ZN7rocksdb7blob_db10BlobDBImpl12OpenAllFilesEv
librocksdb.so.5.4:_ZN7rocksdb7blob_db10BlobDBImpl12RemoveTimerQEP10TimerQueueb
librocksdb.so.5.4:_ZN7rocksdb7blob_db10BlobDBImpl12ShouldGCFileESt10shared_ptrINS0_8BlobFileEElmPNSt7__cxx1112basic_stringIcSt11char_traitsIcESaIcEEE
librocksdb.so.5.4:_ZN7rocksdb7blob_db10BlobDBImpl12SingleDeleteERKNS_12WriteOptionsEPNS_18ColumnFamilyHandleERKNS_5SliceE
librocksdb.so.5.4:_ZN7rocksdb7blob_db10BlobDBImpl13CheckSeqFilesEb
librocksdb.so.5.4:_ZN7rocksdb7blob_db10BlobDBImpl13CloseSeqWriteESt10shared_ptrINS0_8BlobFileEEb
librocksdb.so.5.4:_ZN7rocksdb7blob_db10BlobDBImpl13CopyBlobFilesEPSt6vectorISt10shared_ptrINS0_8BlobFileEESaIS5_EEPm
librocksdb.so.5.4:_ZN7rocksdb7blob_db10BlobDBImpl14CallbackEvictsEP10TimerQueueSt10shared_ptrINS0_8BlobFileEEb
librocksdb.so.5.4:_ZN7rocksdb7blob_db10BlobDBImpl14DeleteObsFilesEb
librocksdb.so.5.4:_ZN7rocksdb7blob_db10BlobDBImpl14EvictCompactedEb
librocksdb.so.5.4:_ZN7rocksdb7blob_db10BlobDBImpl14EvictDeletionsEb
librocksdb.so.5.4:_ZN7rocksdb7blob_db10BlobDBImpl14GetAllLogFilesEPSt3setISt4pairImNSt7__cxx1112basic_stringIcSt11char_traitsIcESaIcEEEESt4lessISA_ESaISA_EE
librocksdb.so.5.4:_ZN7rocksdb7blob_db10BlobDBImpl14SelectBlobFileEv
librocksdb.so.5.4:_ZN7rocksdb7blob_db10BlobDBImpl15MarkBlobDeletedERKNS_5SliceES4_
librocksdb.so.5.4:_ZN7rocksdb7blob_db10BlobDBImpl16ReclaimOpenFilesEb
librocksdb.so.5.4:_ZN7rocksdb7blob_db10BlobDBImpl17SelectBlobFileTTLEj
librocksdb.so.5.4:_ZN7rocksdb7blob_db10BlobDBImpl18CallbackEvictsImplESt10shared_ptrINS0_8BlobFileEE
librocksdb.so.5.4:_ZN7rocksdb7blob_db10BlobDBImpl18CreateWriterLockedERKSt10shared_ptrINS0_8BlobFileEE
librocksdb.so.5.4:_ZN7rocksdb7blob_db10BlobDBImpl18ExtractTTLFromBlobERKNS_5SliceEPS2_Pi
librocksdb.so.5.4:_ZN7rocksdb7blob_db10BlobDBImpl18GCFileAndUpdateLSMERKSt10shared_ptrINS0_8BlobFileEEPNS0_7GCStatsE
librocksdb.so.5.4:_ZN7rocksdb7blob_db10BlobDBImpl18UpdateWriteOptionsERKNS_12WriteOptionsE
librocksdb.so.5.4:_ZN7rocksdb7blob_db10BlobDBImpl19FilterSubsetOfFilesERKSt6vectorISt10shared_ptrINS0_8BlobFileEESaIS5_EEPS7_mmm
librocksdb.so.5.4:_ZN7rocksdb7blob_db10BlobDBImpl19OnFlushBeginHandlerEPNS_2DBERKNS_12FlushJobInfoE
librocksdb.so.5.4:_ZN7rocksdb7blob_db10BlobDBImpl20StartBackgroundTasksEv
librocksdb.so.5.4:_ZN7rocksdb7blob_db10BlobDBImpl21FindFileAndEvictABlobEmmmm
librocksdb.so.5.4:_ZN7rocksdb7blob_db10BlobDBImpl23CloseRandomAccessLockedERKSt10shared_ptrINS0_8BlobFileEE
librocksdb.so.5.4:_ZN7rocksdb7blob_db10BlobDBImpl25CheckOrCreateWriterLockedERKSt10shared_ptrINS0_8BlobFileEE
librocksdb.so.5.4:_ZN7rocksdb7blob_db10BlobDBImpl27GetOrOpenRandomAccessReaderERKSt10shared_ptrINS0_8BlobFileEEPNS_3EnvERKNS_10EnvOptionsE
librocksdb.so.5.4:_ZN7rocksdb7blob_db10BlobDBImpl32FileDeleteOk_SnapshotCheckLockedERKSt10shared_ptrINS0_8BlobFileEE
librocksdb.so.5.4:_ZN7rocksdb7blob_db10BlobDBImpl3GetERKNS_11ReadOptionsEPNS_18ColumnFamilyHandleERKNS_5SliceEPNSt7__cxx1112basic_stringIcSt11char_traitsIcESaIcEEE
librocksdb.so.5.4:_ZN7rocksdb7blob_db10BlobDBImpl3PutERKNS_12WriteOptionsEPNS_18ColumnFamilyHandleERKNS_5SliceES9_
librocksdb.so.5.4:_ZN7rocksdb7blob_db10BlobDBImpl5RunGCEb
librocksdb.so.5.4:_ZN7rocksdb7blob_db10BlobDBImpl5WriteERKNS_12WriteOptionsEPNS_10WriteBatchE
librocksdb.so.5.4:_ZN7rocksdb7blob_db10BlobDBImpl6DeleteERKNS_12WriteOptionsEPNS_18ColumnFamilyHandleERKNS_5SliceE
librocksdb.so.5.4:_ZN7rocksdb7blob_db10BlobDBImpl7CloseIfERKSt10shared_ptrINS0_8BlobFileEE
librocksdb.so.5.4:_ZN7rocksdb7blob_db10BlobDBImpl7WaStatsEb
librocksdb.so.5.4:_ZN7rocksdb7blob_db10BlobDBImpl8AppendSNERKSt10shared_ptrINS0_8BlobFileEERKm
librocksdb.so.5.4:_ZN7rocksdb7blob_db10BlobDBImpl8MultiGetERKNS_11ReadOptionsERKSt6vectorIPNS_18ColumnFamilyHandleESaIS7_EERKS5_INS_5SliceESaISC_EEPS5_INSt7__cxx1112basic_stringIcSt11char_traitsIcESaIcEEESaISM_EE
librocksdb.so.5.4:_ZN7rocksdb7blob_db10BlobDBImpl8PutUntilERKNS_12WriteOptionsEPNS_18ColumnFamilyHandleERKNS_5SliceES9_i
librocksdb.so.5.4:_ZN7rocksdb7blob_db10BlobDBImpl8ShutdownEv
librocksdb.so.5.4:_ZN7rocksdb7blob_db10BlobDBImpl9CommonGetEPKNS_16ColumnFamilyDataERKNS_5SliceERKNSt7__cxx1112basic_stringIcSt11char_traitsIcESaIcEEEPSD_
librocksdb.so.5.4:_ZN7rocksdb7blob_db10BlobDBImplC1EPNS_2DBERKNS0_13BlobDBOptionsE
librocksdb.so.5.4:_ZN7rocksdb7blob_db10BlobDBImplC1ERKNSt7__cxx1112basic_stringIcSt11char_traitsIcESaIcEEERKNS0_13BlobDBOptionsERKNS_9DBOptionsE
librocksdb.so.5.4:_ZN7rocksdb7blob_db10BlobDBImplC2EPNS_2DBERKNS0_13BlobDBOptionsE
librocksdb.so.5.4:_ZN7rocksdb7blob_db10BlobDBImplC2ERKNSt7__cxx1112basic_stringIcSt11char_traitsIcESaIcEEERKNS0_13BlobDBOptionsERKNS_9DBOptionsE
librocksdb.so.5.4:_ZN7rocksdb7blob_db10BlobDBImplD0Ev
librocksdb.so.5.4:_ZN7rocksdb7blob_db10BlobDBImplD1Ev
librocksdb.so.5.4:_ZN7rocksdb7blob_db10BlobDBImplD2Ev
librocksdb.so.5.4:_ZN7rocksdb7blob_db10BlobHandle10DecodeFromEPNS_5SliceE
librocksdb.so.5.4:_ZN7rocksdb7blob_db10BlobHandle5clearEv
librocksdb.so.5.4:_ZN7rocksdb7blob_db13BlobDBOptionsC1Ev
librocksdb.so.5.4:_ZN7rocksdb7blob_db13BlobDBOptionsC2Ev
librocksdb.so.5.4:_ZN7rocksdb7blob_db13BlobLogFooter10DecodeFromEPNS_5SliceE
librocksdb.so.5.4:_ZN7rocksdb7blob_db13BlobLogFooterC1Ev
librocksdb.so.5.4:_ZN7rocksdb7blob_db13BlobLogFooterC2Ev
librocksdb.so.5.4:_ZN7rocksdb7blob_db13BlobLogHeader10DecodeFromEPNS_5SliceE
librocksdb.so.5.4:_ZN7rocksdb7blob_db13BlobLogHeaderC1Ev
librocksdb.so.5.4:_ZN7rocksdb7blob_db13BlobLogHeaderC2Ev
librocksdb.so.5.4:_ZN7rocksdb7blob_db13BlobLogHeaderaSEOS1_
librocksdb.so.5.4:_ZN7rocksdb7blob_db13BlobLogRecord15ResizeKeyBufferEm
librocksdb.so.5.4:_ZN7rocksdb7blob_db13BlobLogRecord16DecodeFooterFromERKNS_5SliceE
librocksdb.so.5.4:_ZN7rocksdb7blob_db13BlobLogRecord16DecodeHeaderFromERKNS_5SliceE
librocksdb.so.5.4:_ZN7rocksdb7blob_db13BlobLogRecord16ResizeBlobBufferEm
librocksdb.so.5.4:_ZN7rocksdb7blob_db13BlobLogRecord5ClearEv
librocksdb.so.5.4:_ZN7rocksdb7blob_db13BlobLogRecordC1Ev
librocksdb.so.5.4:_ZN7rocksdb7blob_db13BlobLogRecordC2Ev
librocksdb.so.5.4:_ZN7rocksdb7blob_db13BlobLogRecordD1Ev
librocksdb.so.5.4:_ZN7rocksdb7blob_db13BlobLogRecordD2Ev
librocksdb.so.5.4:_ZN7rocksdb7blob_db17BlobDBOptionsImplC1ERKNS0_13BlobDBOptionsE
librocksdb.so.5.4:_ZN7rocksdb7blob_db17BlobDBOptionsImplC1Ev
librocksdb.so.5.4:_ZN7rocksdb7blob_db17BlobDBOptionsImplC2ERKNS0_13BlobDBOptionsE
librocksdb.so.5.4:_ZN7rocksdb7blob_db17BlobDBOptionsImplC2Ev
librocksdb.so.5.4:_ZN7rocksdb7blob_db17BlobDBOptionsImplaSERKS1_
librocksdb.so.5.4:_ZN7rocksdb7blob_db22BlobReconcileWalFilter14LogRecordFoundEyRKNSt7__cxx1112basic_stringIcSt11char_traitsIcESaIcEEERKNS_10WriteBatchEPSA_Pb
librocksdb.so.5.4:_ZN7rocksdb7blob_db24BlobDBFlushBeginListener12OnFlushBeginEPNS_2DBERKNS_12FlushJobInfoE
librocksdb.so.5.4:_ZN7rocksdb7blob_db34EvictAllVersionsCompactionListener16InternalListener12OnCompactionEiRKNS_5SliceENS_23CompactionEventListener27CompactionListenerValueTypeES5_RKmb
librocksdb.so.5.4:_ZN7rocksdb7blob_db6BlobDB11OpenAndLoadERKNS_7OptionsERKNS0_13BlobDBOptionsERKNSt7__cxx1112basic_stringIcSt11char_traitsIcESaIcEEEPPS1_PS2_
librocksdb.so.5.4:_ZN7rocksdb7blob_db6BlobDB13DestroyBlobDBERKNSt7__cxx1112basic_stringIcSt11char_traitsIcESaIcEEERKNS_7OptionsERKNS0_13BlobDBOptionsE
librocksdb.so.5.4:_ZN7rocksdb7blob_db6BlobDB4OpenERKNS_7OptionsERKNS0_13BlobDBOptionsERKNSt7__cxx1112basic_stringIcSt11char_traitsIcESaIcEEEPPS1_
librocksdb.so.5.4:_ZN7rocksdb7blob_db6BlobDB4OpenERKNS_9DBOptionsERKNS0_13BlobDBOptionsERKNSt7__cxx1112basic_stringIcSt11char_traitsIcESaIcEEERKSt6vectorINS_22ColumnFamilyDescriptorESaISH_EEPSG_IPNS_18ColumnFamilyHandleESaISN_EEPPS1_b
librocksdb.so.5.4:_ZN7rocksdb7blob_db6BlobDBC1EPNS_2DBE
librocksdb.so.5.4:_ZN7rocksdb7blob_db6BlobDBC2EPNS_2DBE
librocksdb.so.5.4:_ZN7rocksdb7blob_db6Reader10ReadHeaderEPNS0_13BlobLogHeaderE
librocksdb.so.5.4:_ZN7rocksdb7blob_db6Reader10ReadRecordEPNS0_13BlobLogRecordENS1_9ReadLevelENS_15WALRecoveryModeE
librocksdb.so.5.4:_ZN7rocksdb7blob_db6ReaderC1ESt10shared_ptrINS_6LoggerEEOSt10unique_ptrINS_20SequentialFileReaderESt14default_deleteIS6_EE
librocksdb.so.5.4:_ZN7rocksdb7blob_db6ReaderC2ESt10shared_ptrINS_6LoggerEEOSt10unique_ptrINS_20SequentialFileReaderESt14default_deleteIS6_EE
librocksdb.so.5.4:_ZN7rocksdb7blob_db6ReaderD1Ev
librocksdb.so.5.4:_ZN7rocksdb7blob_db6ReaderD2Ev
librocksdb.so.5.4:_ZN7rocksdb7blob_db6Writer11WriteHeaderERKNS0_13BlobLogHeaderE
librocksdb.so.5.4:_ZN7rocksdb7blob_db6Writer12AppendFooterERKNS0_13BlobLogFooterE
librocksdb.so.5.4:_ZN7rocksdb7blob_db6Writer15AddRecordFooterERKm
librocksdb.so.5.4:_ZN7rocksdb7blob_db6Writer18EmitPhysicalRecordERKNSt7__cxx1112basic_stringIcSt11char_traitsIcESaIcEEERKNS_5SliceESC_PmSD_
librocksdb.so.5.4:_ZN7rocksdb7blob_db6Writer19ConstructBlobHeaderEPNSt7__cxx1112basic_stringIcSt11char_traitsIcESaIcEEERKNS_5SliceESB_il
librocksdb.so.5.4:_ZN7rocksdb7blob_db6Writer4SyncEv
librocksdb.so.5.4:_ZN7rocksdb7blob_db6Writer9AddRecordERKNS_5SliceES4_PmS5_
librocksdb.so.5.4:_ZN7rocksdb7blob_db6Writer9AddRecordERKNS_5SliceES4_PmS5_j
librocksdb.so.5.4:_ZN7rocksdb7blob_db6WriterC1EOSt10unique_ptrINS_18WritableFileWriterESt14default_deleteIS3_EEmmbm
librocksdb.so.5.4:_ZN7rocksdb7blob_db6WriterC2EOSt10unique_ptrINS_18WritableFileWriterESt14default_deleteIS3_EEmmbm
librocksdb.so.5.4:_ZN7rocksdb7blob_db6WriterD1Ev
librocksdb.so.5.4:_ZN7rocksdb7blob_db6WriterD2Ev
librocksdb.so.5.4:_ZN7rocksdb7blob_db8BlobFile10ReadFooterEPNS0_13BlobLogFooterE
librocksdb.so.5.4:_ZN7rocksdb7blob_db8BlobFile15GetColumnFamilyEPNS_2DBE
librocksdb.so.5.4:_ZN7rocksdb7blob_db8BlobFile19SetFromFooterLockedERKNS0_13BlobLogFooterE
librocksdb.so.5.4:_ZN7rocksdb7blob_db8BlobFile23CloseRandomAccessLockedEv
librocksdb.so.5.4:_ZN7rocksdb7blob_db8BlobFile25WriteFooterAndCloseLockedEv
librocksdb.so.5.4:_ZN7rocksdb7blob_db8BlobFile27GetOrOpenRandomAccessReaderEPNS_3EnvERKNS_10EnvOptionsEPb
librocksdb.so.5.4:_ZN7rocksdb7blob_db8BlobFile5FsyncEv
librocksdb.so.5.4:_ZN7rocksdb7blob_db8BlobFileC1EPKNS0_10BlobDBImplERKNSt7__cxx1112basic_stringIcSt11char_traitsIcESaIcEEEm
librocksdb.so.5.4:_ZN7rocksdb7blob_db8BlobFileC1Ev
librocksdb.so.5.4:_ZN7rocksdb7blob_db8BlobFileC2EPKNS0_10BlobDBImplERKNSt7__cxx1112basic_stringIcSt11char_traitsIcESaIcEEEm
librocksdb.so.5.4:_ZN7rocksdb7blob_db8BlobFileC2Ev
librocksdb.so.5.4:_ZN7rocksdb7blob_db8BlobFileD1Ev
librocksdb.so.5.4:_ZN7rocksdb7blob_db8BlobFileD2Ev
librocksdb.so.5.4:_ZN7rocksdb7fromHexEc
librocksdb.so.5.4:_ZN7rocksdb7spatial10FeatureSet11DeserializeERKNS_5SliceE
librocksdb.so.5.4:_ZN7rocksdb7spatial10FeatureSet3SetERKNSt7__cxx1112basic_stringIcSt11char_traitsIcESaIcEEERKNS0_7VariantE
librocksdb.so.5.4:_ZN7rocksdb7spatial10FeatureSet5ClearEv
librocksdb.so.5.4:_ZN7rocksdb7spatial7Variant4InitERKS1_RNS1_4DataE
librocksdb.so.5.4:_ZN7rocksdb7spatial7VariantaSEOS1_
librocksdb.so.5.4:_ZN7rocksdb7spatial7VariantaSERKS1_
librocksdb.so.5.4:_ZN7rocksdb7spatial9SpatialDB4OpenERKNS0_16SpatialDBOptionsERKNSt7__cxx1112basic_stringIcSt11char_traitsIcESaIcEEEPPS1_b
librocksdb.so.5.4:_ZN7rocksdb7spatial9SpatialDB6CreateERKNS0_16SpatialDBOptionsERKNSt7__cxx1112basic_stringIcSt11char_traitsIcESaIcEEERKSt6vectorINS0_19SpatialIndexOptionsESaISE_EE
librocksdb.so.5.4:_ZN7rocksdb8CopyFileEPNS_3EnvERKNSt7__cxx1112basic_stringIcSt11char_traitsIcESaIcEEES9_mb
librocksdb.so.5.4:_ZN7rocksdb8FileLockD0Ev
librocksdb.so.5.4:_ZN7rocksdb8FileLockD1Ev
librocksdb.so.5.4:_ZN7rocksdb8FileLockD2Ev
librocksdb.so.5.4:_ZN7rocksdb8FindFileERKNS_21InternalKeyComparatorERKNS_15LevelFilesBriefERKNS_5SliceE
librocksdb.so.5.4:_ZN7rocksdb8FlushJob12PickMemTableEv
librocksdb.so.5.4:_ZN7rocksdb8FlushJob16WriteLevel0TableEv
librocksdb.so.5.4:_ZN7rocksdb8FlushJob18RecordFlushIOStatsEv
librocksdb.so.5.4:_ZN7rocksdb8FlushJob18ReportStartedFlushEv
librocksdb.so.5.4:_ZN7rocksdb8FlushJob20ReportFlushInputSizeERKNS_10autovectorIPNS_8MemTableELm8EEE
librocksdb.so.5.4:_ZN7rocksdb8FlushJob3RunEPNS_12FileMetaDataE
librocksdb.so.5.4:_ZN7rocksdb8FlushJob6CancelEv
librocksdb.so.5.4:_ZN7rocksdb8FlushJobC1ERKNSt7__cxx1112basic_stringIcSt11char_traitsIcESaIcEEEPNS_16ColumnFamilyDataERKNS_18ImmutableDBOptionsERKNS_16MutableCFOptionsERKNS_10EnvOptionsEPNS_10VersionSetEPNS_17InstrumentedMutexEPSt6atomicIbESt6vectorImSaImEEmPNS_10JobContextEPNS_9LogBufferEPNS_9DirectoryESZ_NS_15CompressionTypeEPNS_10StatisticsEPNS_11EventLoggerEb
librocksdb.so.5.4:_ZN7rocksdb8FlushJobC2ERKNSt7__cxx1112basic_stringIcSt11char_traitsIcESaIcEEEPNS_16ColumnFamilyDataERKNS_18ImmutableDBOptionsERKNS_16MutableCFOptionsERKNS_10EnvOptionsEPNS_10VersionSetEPNS_17InstrumentedMutexEPSt6atomicIbESt6vectorImSaImEEmPNS_10JobContextEPNS_9LogBufferEPNS_9DirectoryESZ_NS_15CompressionTypeEPNS_10StatisticsEPNS_11EventLoggerEb
librocksdb.so.5.4:_ZN7rocksdb8FlushJobD1Ev
librocksdb.so.5.4:_ZN7rocksdb8FlushJobD2Ev
librocksdb.so.5.4:_ZN7rocksdb8Iterator11GetPropertyENSt7__cxx1112basic_stringIcSt11char_traitsIcESaIcEEEPS6_
librocksdb.so.5.4:_ZN7rocksdb8LRUCache10DisownDataEv
librocksdb.so.5.4:_ZN7rocksdb8LRUCache5ValueEPNS_5Cache6HandleE
librocksdb.so.5.4:_ZN7rocksdb8LRUCache8GetShardEi
librocksdb.so.5.4:_ZN7rocksdb8LRUCacheC1Emibd
librocksdb.so.5.4:_ZN7rocksdb8LRUCacheC2Emibd
librocksdb.so.5.4:_ZN7rocksdb8LRUCacheD0Ev
librocksdb.so.5.4:_ZN7rocksdb8LRUCacheD1Ev
librocksdb.so.5.4:_ZN7rocksdb8LRUCacheD2Ev
librocksdb.so.5.4:_ZN7rocksdb8LogFlushEPNS_6LoggerE
librocksdb.so.5.4:_ZN7rocksdb8LogFlushERKSt10shared_ptrINS_6LoggerEE
librocksdb.so.5.4:_ZN7rocksdb8MemTable11NewIteratorERKNS_11ReadOptionsEPNS_5ArenaE
librocksdb.so.5.4:_ZN7rocksdb8MemTable14UpdateCallbackEmRKNS_5SliceES3_
librocksdb.so.5.4:_ZN7rocksdb8MemTable16ApproximateStatsERKNS_5SliceES3_
librocksdb.so.5.4:_ZN7rocksdb8MemTable16UpdateFlushStateEv
librocksdb.so.5.4:_ZN7rocksdb8MemTable22ApproximateMemoryUsageEv
librocksdb.so.5.4:_ZN7rocksdb8MemTable25NewRangeTombstoneIteratorERKNS_11ReadOptionsE
librocksdb.so.5.4:_ZN7rocksdb8MemTable27CountSuccessiveMergeEntriesERKNS_9LookupKeyE
librocksdb.so.5.4:_ZN7rocksdb8MemTable27RefLogContainingPrepSectionEm
librocksdb.so.5.4:_ZN7rocksdb8MemTable30GetMinLogContainingPrepSectionEv
librocksdb.so.5.4:_ZN7rocksdb8MemTable3AddEmNS_9ValueTypeERKNS_5SliceES4_bPNS_23MemTablePostProcessInfoE
librocksdb.so.5.4:_ZN7rocksdb8MemTable3GetERKNS_9LookupKeyEPNSt7__cxx1112basic_stringIcSt11char_traitsIcESaIcEEEPNS_6StatusEPNS_12MergeContextEPNS_18RangeDelAggregatorEPmRKNS_11ReadOptionsE
librocksdb.so.5.4:_ZN7rocksdb8MemTable6UpdateEmRKNS_5SliceES3_
librocksdb.so.5.4:_ZN7rocksdb8MemTable7GetLockERKNS_5SliceE
librocksdb.so.5.4:_ZN7rocksdb8MemTableC1ERKNS_21InternalKeyComparatorERKNS_18ImmutableCFOptionsERKNS_16MutableCFOptionsEPNS_18WriteBufferManagerEm
librocksdb.so.5.4:_ZN7rocksdb8MemTableC2ERKNS_21InternalKeyComparatorERKNS_18ImmutableCFOptionsERKNS_16MutableCFOptionsEPNS_18WriteBufferManagerEm
librocksdb.so.5.4:_ZN7rocksdb8MemTableD1Ev
librocksdb.so.5.4:_ZN7rocksdb8MemTableD2Ev
librocksdb.so.5.4:_ZN7rocksdb8ParseIntERKNSt7__cxx1112basic_stringIcSt11char_traitsIcESaIcEEE
librocksdb.so.5.4:_ZN7rocksdb8RepairDBERKNSt7__cxx1112basic_stringIcSt11char_traitsIcESaIcEEERKNS_7OptionsE
librocksdb.so.5.4:_ZN7rocksdb8RepairDBERKNSt7__cxx1112basic_stringIcSt11char_traitsIcESaIcEEERKNS_9DBOptionsERKSt6vectorINS_22ColumnFamilyDescriptorESaISC_EE
librocksdb.so.5.4:_ZN7rocksdb8RepairDBERKNSt7__cxx1112basic_stringIcSt11char_traitsIcESaIcEEERKNS_9DBOptionsERKSt6vectorINS_22ColumnFamilyDescriptorESaISC_EERKNS_19ColumnFamilyOptionsE
librocksdb.so.5.4:_ZN7rocksdb8SnapshotD0Ev
librocksdb.so.5.4:_ZN7rocksdb8SnapshotD1Ev
librocksdb.so.5.4:_ZN7rocksdb8SnapshotD2Ev
librocksdb.so.5.4:_ZN7rocksdb9BlockIter10BinarySeekERKNS_5SliceEjjPj
librocksdb.so.5.4:_ZN7rocksdb9BlockIter10PrefixSeekERKNS_5SliceEPj
librocksdb.so.5.4:_ZN7rocksdb9BlockIter10SeekToLastEv
librocksdb.so.5.4:_ZN7rocksdb9BlockIter11SeekForPrevERKNS_5SliceE
librocksdb.so.5.4:_ZN7rocksdb9BlockIter11SeekToFirstEv
librocksdb.so.5.4:_ZN7rocksdb9BlockIter12ParseNextKeyEv
librocksdb.so.5.4:_ZN7rocksdb9BlockIter15CompareBlockKeyEjRKNS_5SliceE
librocksdb.so.5.4:_ZN7rocksdb9BlockIter15CorruptionErrorEv
librocksdb.so.5.4:_ZN7rocksdb9BlockIter20BinaryBlockIndexSeekERKNS_5SliceEPjjjS4_
librocksdb.so.5.4:_ZN7rocksdb9BlockIter4NextEv
librocksdb.so.5.4:_ZN7rocksdb9BlockIter4PrevEv
librocksdb.so.5.4:_ZN7rocksdb9BlockIter4SeekERKNS_5SliceE
librocksdb.so.5.4:_ZN7rocksdb9Cleanable15RegisterCleanupEPFvPvS1_ES1_S1_
librocksdb.so.5.4:_ZN7rocksdb9Cleanable15RegisterCleanupEPNS0_7CleanupE
librocksdb.so.5.4:_ZN7rocksdb9Cleanable18DelegateCleanupsToEPS0_
librocksdb.so.5.4:_ZN7rocksdb9CleanableC1Ev
librocksdb.so.5.4:_ZN7rocksdb9CleanableC2Ev
librocksdb.so.5.4:_ZN7rocksdb9CleanableD1Ev
librocksdb.so.5.4:_ZN7rocksdb9CleanableD2Ev
librocksdb.so.5.4:_ZN7rocksdb9DBOptions11OldDefaultsEii
librocksdb.so.5.4:_ZN7rocksdb9DBOptions18OptimizeForSmallDbEv
librocksdb.so.5.4:_ZN7rocksdb9DBOptions19IncreaseParallelismEi
librocksdb.so.5.4:_ZN7rocksdb9DBOptionsC1ERKNS_7OptionsE
librocksdb.so.5.4:_ZN7rocksdb9DBOptionsC1Ev
librocksdb.so.5.4:_ZN7rocksdb9DBOptionsC2ERKNS_7OptionsE
librocksdb.so.5.4:_ZN7rocksdb9DBOptionsC2Ev
librocksdb.so.5.4:_ZN7rocksdb9DBWithTTL4OpenERKNS_7OptionsERKNSt7__cxx1112basic_stringIcSt11char_traitsIcESaIcEEEPPS0_ib
librocksdb.so.5.4:_ZN7rocksdb9DBWithTTL4OpenERKNS_9DBOptionsERKNSt7__cxx1112basic_stringIcSt11char_traitsIcESaIcEEERKSt6vectorINS_22ColumnFamilyDescriptorESaISD_EEPSC_IPNS_18ColumnFamilyHandleESaISJ_EEPPS0_SC_IiSaIiEEb
librocksdb.so.5.4:_ZN7rocksdb9DestroyDBERKNSt7__cxx1112basic_stringIcSt11char_traitsIcESaIcEEERKNS_7OptionsE
librocksdb.so.5.4:_ZN7rocksdb9EncodeKeyEPNSt7__cxx1112basic_stringIcSt11char_traitsIcESaIcEEERKNS_5SliceE
librocksdb.so.5.4:_ZN7rocksdb9EnvMirror15NewWritableFileERKNSt7__cxx1112basic_stringIcSt11char_traitsIcESaIcEEEPSt10unique_ptrINS_12WritableFileESt14default_deleteISA_EERKNS_10EnvOptionsE
librocksdb.so.5.4:_ZN7rocksdb9EnvMirror17NewSequentialFileERKNSt7__cxx1112basic_stringIcSt11char_traitsIcESaIcEEEPSt10unique_ptrINS_14SequentialFileESt14default_deleteISA_EERKNS_10EnvOptionsE
librocksdb.so.5.4:_ZN7rocksdb9EnvMirror17ReuseWritableFileERKNSt7__cxx1112basic_stringIcSt11char_traitsIcESaIcEEES8_PSt10unique_ptrINS_12WritableFileESt14default_deleteISA_EERKNS_10EnvOptionsE
librocksdb.so.5.4:_ZN7rocksdb9EnvMirror19NewRandomAccessFileERKNSt7__cxx1112basic_stringIcSt11char_traitsIcESaIcEEEPSt10unique_ptrINS_16RandomAccessFileESt14default_deleteISA_EERKNS_10EnvOptionsE
librocksdb.so.5.4:_ZN7rocksdb9GeoDBImpl11PixelToTileERKNS0_5PixelE
librocksdb.so.5.4:_ZN7rocksdb9GeoDBImpl11TileToPixelERKNS0_4TileE
librocksdb.so.5.4:_ZN7rocksdb9GeoDBImpl12SearchRadialERKNS_11GeoPositionEdi
librocksdb.so.5.4:_ZN7rocksdb9GeoDBImpl13GetByPositionERKNS_11GeoPositionERKNS_5SliceEPNSt7__cxx1112basic_stringIcSt11char_traitsIcESaIcEEE
librocksdb.so.5.4:_ZN7rocksdb9GeoDBImpl13QuadKeyToTileENSt7__cxx1112basic_stringIcSt11char_traitsIcESaIcEEEPNS0_4TileEPi
librocksdb.so.5.4:_ZN7rocksdb9GeoDBImpl13TileToQuadKeyB5cxx11ERKNS0_4TileEi
librocksdb.so.5.4:_ZN7rocksdb9GeoDBImpl13searchQuadIdsERKNS_11GeoPositionEdPSt6vectorINSt7__cxx1112basic_stringIcSt11char_traitsIcESaIcEEESaISA_EE
librocksdb.so.5.4:_ZN7rocksdb9GeoDBImpl14MakeKey1PrefixENSt7__cxx1112basic_stringIcSt11char_traitsIcESaIcEEENS_5SliceE
librocksdb.so.5.4:_ZN7rocksdb9GeoDBImpl14PositionToQuadB5cxx11ERKNS_11GeoPositionEi
librocksdb.so.5.4:_ZN7rocksdb9GeoDBImpl14displaceLatLonEdddd
librocksdb.so.5.4:_ZN7rocksdb9GeoDBImpl15PixelToPositionERKNS0_5PixelEi
librocksdb.so.5.4:_ZN7rocksdb9GeoDBImpl15PositionToPixelERKNS_11GeoPositionEi
librocksdb.so.5.4:_ZN7rocksdb9GeoDBImpl16GroundResolutionEdi
librocksdb.so.5.4:_ZN7rocksdb9GeoDBImpl17MakeQuadKeyPrefixENSt7__cxx1112basic_stringIcSt11char_traitsIcESaIcEEE
librocksdb.so.5.4:_ZN7rocksdb9GeoDBImpl6InsertERKNS_9GeoObjectE
librocksdb.so.5.4:_ZN7rocksdb9GeoDBImpl6RemoveERKNS_5SliceE
librocksdb.so.5.4:_ZN7rocksdb9GeoDBImpl7GetByIdERKNS_5SliceEPNS_9GeoObjectE
librocksdb.so.5.4:_ZN7rocksdb9GeoDBImpl7degreesEd
librocksdb.so.5.4:_ZN7rocksdb9GeoDBImpl7radiansEd
librocksdb.so.5.4:_ZN7rocksdb9GeoDBImpl8MakeKey1ERKNS_11GeoPositionENS_5SliceENSt7__cxx1112basic_stringIcSt11char_traitsIcESaIcEEE
librocksdb.so.5.4:_ZN7rocksdb9GeoDBImpl8MakeKey2B5cxx11ENS_5SliceE
librocksdb.so.5.4:_ZN7rocksdb9GeoDBImpl8distanceEdddd
librocksdb.so.5.4:_ZN7rocksdb9GeoDBImplC1EPNS_2DBERKNS_12GeoDBOptionsE
librocksdb.so.5.4:_ZN7rocksdb9GeoDBImplC2EPNS_2DBERKNS_12GeoDBOptionsE
librocksdb.so.5.4:_ZN7rocksdb9GeoDBImplD0Ev
librocksdb.so.5.4:_ZN7rocksdb9GeoDBImplD1Ev
librocksdb.so.5.4:_ZN7rocksdb9GeoDBImplD2Ev
librocksdb.so.5.4:_ZN7rocksdb9LogBuffer14AddLogToBufferEmPKcP13__va_list_tag
librocksdb.so.5.4:_ZN7rocksdb9LogBuffer16FlushBufferToLogEv
librocksdb.so.5.4:_ZN7rocksdb9LogBufferC1ENS_12InfoLogLevelEPNS_6LoggerE
librocksdb.so.5.4:_ZN7rocksdb9LogBufferC2ENS_12InfoLogLevelEPNS_6LoggerE
librocksdb.so.5.4:_ZN7rocksdb9LookupKeyC1ERKNS_5SliceEm
librocksdb.so.5.4:_ZN7rocksdb9LookupKeyC2ERKNS_5SliceEm
librocksdb.so.5.4:_ZN7rocksdb9NewMemEnvEPNS_3EnvE
librocksdb.so.5.4:_ZN7rocksdb9UtilityDB9OpenTtlDBERKNS_7OptionsERKNSt7__cxx1112basic_stringIcSt11char_traitsIcESaIcEEEPPNS_11StackableDBEib
librocksdb.so.5.4:_ZNK7rocksdb10Compaction13IsTrivialMoveEv
librocksdb.so.5.4:_ZNK7rocksdb10Compaction17InputLevelSummaryEPNS0_23InputLevelSummaryBufferE
librocksdb.so.5.4:_ZNK7rocksdb10Compaction18IsOutputLevelEmptyEv
librocksdb.so.5.4:_ZNK7rocksdb10Compaction22CreateCompactionFilterEv
librocksdb.so.5.4:_ZNK7rocksdb10Compaction23CalculateTotalInputSizeEv
librocksdb.so.5.4:_ZNK7rocksdb10Compaction24ShouldFormSubcompactionsEv
librocksdb.so.5.4:_ZNK7rocksdb10Compaction27OutputFilePreallocationSizeEv
librocksdb.so.5.4:_ZNK7rocksdb10Compaction29InputCompressionMatchesOutputEv
librocksdb.so.5.4:_ZNK7rocksdb10Compaction29KeyNotExistsBeyondOutputLevelERKNS_5SliceEPSt6vectorImSaImEE
librocksdb.so.5.4:_ZNK7rocksdb10WriteBatch11HasRollbackEv
librocksdb.so.5.4:_ZNK7rocksdb10WriteBatch13HasEndPrepareEv
librocksdb.so.5.4:_ZNK7rocksdb10WriteBatch14HasDeleteRangeEv
librocksdb.so.5.4:_ZNK7rocksdb10WriteBatch15HasBeginPrepareEv
librocksdb.so.5.4:_ZNK7rocksdb10WriteBatch15HasSingleDeleteEv
librocksdb.so.5.4:_ZNK7rocksdb10WriteBatch19ComputeContentFlagsEv
librocksdb.so.5.4:_ZNK7rocksdb10WriteBatch5CountEv
librocksdb.so.5.4:_ZNK7rocksdb10WriteBatch6HasPutEv
librocksdb.so.5.4:_ZNK7rocksdb10WriteBatch7IterateEPNS0_7HandlerE
librocksdb.so.5.4:_ZNK7rocksdb10WriteBatch8HasMergeEv
librocksdb.so.5.4:_ZNK7rocksdb10WriteBatch9HasCommitEv
librocksdb.so.5.4:_ZNK7rocksdb10WriteBatch9HasDeleteEv
librocksdb.so.5.4:_ZNK7rocksdb11BlockHandle8EncodeToEPNSt7__cxx1112basic_stringIcSt11char_traitsIcESaIcEEE
librocksdb.so.5.4:_ZNK7rocksdb11BlockHandle8ToStringB5cxx11Eb
librocksdb.so.5.4:_ZNK7rocksdb11CacheRecord10ComputeCRCEv
librocksdb.so.5.4:_ZNK7rocksdb11FileIndexer13NumLevelIndexEv
librocksdb.so.5.4:_ZNK7rocksdb11FileIndexer14LevelIndexSizeEm
librocksdb.so.5.4:_ZNK7rocksdb11FileIndexer17GetNextLevelIndexEmmiiPiS1_
librocksdb.so.5.4:_ZNK7rocksdb11InternalKey11DebugStringB5cxx11Eb
librocksdb.so.5.4:_ZNK7rocksdb11MemTableRep7UserKeyEPKc
librocksdb.so.5.4:_ZNK7rocksdb11PerfContext8ToStringB5cxx11Eb
librocksdb.so.5.4:_ZNK7rocksdb11VersionEdit11DebugStringB5cxx11Eb
librocksdb.so.5.4:_ZNK7rocksdb11VersionEdit8EncodeToEPNSt7__cxx1112basic_stringIcSt11char_traitsIcESaIcEEE
librocksdb.so.5.4:_ZNK7rocksdb11VersionEdit9DebugJSONB5cxx11Eib
librocksdb.so.5.4:_ZNK7rocksdb12BlockBuilder19EstimateSizeAfterKVERKNS_5SliceES3_
librocksdb.so.5.4:_ZNK7rocksdb12JSONDocument11DebugStringB5cxx11Ev
librocksdb.so.5.4:_ZNK7rocksdb12JSONDocument22ItemsIteratorGenerator3endEv
librocksdb.so.5.4:_ZNK7rocksdb12JSONDocument22ItemsIteratorGenerator5beginEv
librocksdb.so.5.4:_ZNK7rocksdb12JSONDocument4CopyEv
librocksdb.so.5.4:_ZNK7rocksdb12JSONDocument4typeEv
librocksdb.so.5.4:_ZNK7rocksdb12JSONDocument5CountEv
librocksdb.so.5.4:_ZNK7rocksdb12JSONDocument5ItemsEv
librocksdb.so.5.4:_ZNK7rocksdb12JSONDocument6IsBoolEv
librocksdb.so.5.4:_ZNK7rocksdb12JSONDocument6IsNullEv
librocksdb.so.5.4:_ZNK7rocksdb12JSONDocument7GetBoolEv
librocksdb.so.5.4:_ZNK7rocksdb12JSONDocument7IsArrayEv
librocksdb.so.5.4:_ZNK7rocksdb12JSONDocument7IsInt64Ev
librocksdb.so.5.4:_ZNK7rocksdb12JSONDocument7IsOwnerEv
librocksdb.so.5.4:_ZNK7rocksdb12JSONDocument8ContainsERKNSt7__cxx1112basic_stringIcSt11char_traitsIcESaIcEEE
librocksdb.so.5.4:_ZNK7rocksdb12JSONDocument8GetInt64Ev
librocksdb.so.5.4:_ZNK7rocksdb12JSONDocument8IsDoubleEv
librocksdb.so.5.4:_ZNK7rocksdb12JSONDocument8IsObjectEv
librocksdb.so.5.4:_ZNK7rocksdb12JSONDocument8IsStringEv
librocksdb.so.5.4:_ZNK7rocksdb12JSONDocument9GetDoubleEv
librocksdb.so.5.4:_ZNK7rocksdb12JSONDocument9GetStringB5cxx11Ev
librocksdb.so.5.4:_ZNK7rocksdb12JSONDocument9SerializeEPNSt7__cxx1112basic_stringIcSt11char_traitsIcESaIcEEE
librocksdb.so.5.4:_ZNK7rocksdb12JSONDocumenteqERKS0_
librocksdb.so.5.4:_ZNK7rocksdb12JSONDocumentixERKNSt7__cxx1112basic_stringIcSt11char_traitsIcESaIcEEE
librocksdb.so.5.4:_ZNK7rocksdb12JSONDocumentixEm
librocksdb.so.5.4:_ZNK7rocksdb12JSONDocumentneERKS0_
librocksdb.so.5.4:_ZNK7rocksdb12MemTableList10NumFlushedEv
librocksdb.so.5.4:_ZNK7rocksdb12MemTableList13NumNotFlushedEv
librocksdb.so.5.4:_ZNK7rocksdb12MemTableList14IsFlushPendingEv
librocksdb.so.5.4:_ZNK7rocksdb12ShardedCache11GetCapacityEv
librocksdb.so.5.4:_ZNK7rocksdb12ShardedCache14GetPinnedUsageEv
librocksdb.so.5.4:_ZNK7rocksdb12ShardedCache19GetPrintableOptionsB5cxx11Ev
librocksdb.so.5.4:_ZNK7rocksdb12ShardedCache22HasStrictCapacityLimitEv
librocksdb.so.5.4:_ZNK7rocksdb12ShardedCache8GetUsageEPNS_5Cache6HandleE
librocksdb.so.5.4:_ZNK7rocksdb12ShardedCache8GetUsageEv
librocksdb.so.5.4:_ZNK7rocksdb13CompactionJob24UpdateCompactionJobStatsERKNS_13InternalStats15CompactionStatsE
librocksdb.so.5.4:_ZNK7rocksdb13HistogramImpl10PercentileEd
librocksdb.so.5.4:_ZNK7rocksdb13HistogramImpl17StandardDeviationEv
librocksdb.so.5.4:_ZNK7rocksdb13HistogramImpl4DataEPNS_13HistogramDataE
librocksdb.so.5.4:_ZNK7rocksdb13HistogramImpl5EmptyEv
librocksdb.so.5.4:_ZNK7rocksdb13HistogramImpl6MedianEv
librocksdb.so.5.4:_ZNK7rocksdb13HistogramImpl7AverageEv
librocksdb.so.5.4:_ZNK7rocksdb13HistogramImpl8ToStringB5cxx11Ev
librocksdb.so.5.4:_ZNK7rocksdb13HistogramStat10PercentileEd
librocksdb.so.5.4:_ZNK7rocksdb13HistogramStat17StandardDeviationEv
librocksdb.so.5.4:_ZNK7rocksdb13HistogramStat4DataEPNS_13HistogramDataE
librocksdb.so.5.4:_ZNK7rocksdb13HistogramStat5EmptyEv
librocksdb.so.5.4:_ZNK7rocksdb13HistogramStat6MedianEv
librocksdb.so.5.4:_ZNK7rocksdb13HistogramStat7AverageEv
librocksdb.so.5.4:_ZNK7rocksdb13HistogramStat8ToStringB5cxx11Ev
librocksdb.so.5.4:_ZNK7rocksdb13LRUCacheShard14GetPinnedUsageEv
librocksdb.so.5.4:_ZNK7rocksdb13LRUCacheShard19GetPrintableOptionsB5cxx11Ev
librocksdb.so.5.4:_ZNK7rocksdb13LRUCacheShard8GetUsageEv
librocksdb.so.5.4:_ZNK7rocksdb13MergeOperator11FullMergeV2ERKNS0_19MergeOperationInputEPNS0_20MergeOperationOutputE
librocksdb.so.5.4:_ZNK7rocksdb13MergeOperator17PartialMergeMultiERKNS_5SliceERKSt5dequeIS1_SaIS1_EEPNSt7__cxx1112basic_stringIcSt11char_traitsIcESaIcEEEPNS_6LoggerE
librocksdb.so.5.4:_ZNK7rocksdb14AutoRollLogger14ValistToStringB5cxx11EPKcP13__va_list_tag
librocksdb.so.5.4:_ZNK7rocksdb14IOStatsContext8ToStringB5cxx11Eb
librocksdb.so.5.4:_ZNK7rocksdb14StatisticsImpl13HistogramInfo18getMergedHistogramEv
librocksdb.so.5.4:_ZNK7rocksdb14StatisticsImpl13histogramDataEjPNS_13HistogramDataE
librocksdb.so.5.4:_ZNK7rocksdb14StatisticsImpl14getTickerCountEj
librocksdb.so.5.4:_ZNK7rocksdb14StatisticsImpl18HistEnabledForTypeEj
librocksdb.so.5.4:_ZNK7rocksdb14StatisticsImpl18getHistogramStringB5cxx11Ej
librocksdb.so.5.4:_ZNK7rocksdb14StatisticsImpl8ToStringB5cxx11Ev
librocksdb.so.5.4:_ZNK7rocksdb14ThreadLocalPtr10StaticMeta3GetEj
librocksdb.so.5.4:_ZNK7rocksdb14ThreadLocalPtr10StaticMeta6PeekIdEv
librocksdb.so.5.4:_ZNK7rocksdb14ThreadLocalPtr3GetEv
librocksdb.so.5.4:_ZNK7rocksdb14ThreadPoolImpl10GetHostEnvEv
librocksdb.so.5.4:_ZNK7rocksdb14ThreadPoolImpl11GetQueueLenEv
librocksdb.so.5.4:_ZNK7rocksdb14ThreadPoolImpl17GetThreadPriorityEv
librocksdb.so.5.4:_ZNK7rocksdb15BlockBasedTable10ReadFilterERKNS_11BlockHandleEb
librocksdb.so.5.4:_ZNK7rocksdb15BlockBasedTable18GetTablePropertiesEv
librocksdb.so.5.4:_ZNK7rocksdb15BlockBasedTable21FullFilterKeyMayMatchERKNS_11ReadOptionsEPNS_17FilterBlockReaderERKNS_5SliceEb
librocksdb.so.5.4:_ZNK7rocksdb15BlockBasedTable22ApproximateMemoryUsageEv
librocksdb.so.5.4:_ZNK7rocksdb15BlockBasedTable27TEST_filter_block_preloadedEv
librocksdb.so.5.4:_ZNK7rocksdb15BlockBasedTable27TEST_index_reader_preloadedEv
librocksdb.so.5.4:_ZNK7rocksdb15BlockBasedTable9GetFilterERKNS_11BlockHandleEbb
librocksdb.so.5.4:_ZNK7rocksdb15BlockBasedTable9GetFilterEb
librocksdb.so.5.4:_ZNK7rocksdb15ColumnFamilySet10GetDefaultEv
librocksdb.so.5.4:_ZNK7rocksdb15ColumnFamilySet15GetColumnFamilyERKNSt7__cxx1112basic_stringIcSt11char_traitsIcESaIcEEE
librocksdb.so.5.4:_ZNK7rocksdb15ColumnFamilySet15GetColumnFamilyEj
librocksdb.so.5.4:_ZNK7rocksdb15ColumnFamilySet22NumberOfColumnFamiliesEv
librocksdb.so.5.4:_ZNK7rocksdb15ForwardIterator11IsKeyPinnedEv
librocksdb.so.5.4:_ZNK7rocksdb15ForwardIterator13IsValuePinnedEv
librocksdb.so.5.4:_ZNK7rocksdb15ForwardIterator16IsOverUpperBoundERKNS_5SliceE
librocksdb.so.5.4:_ZNK7rocksdb15ForwardIterator3keyEv
librocksdb.so.5.4:_ZNK7rocksdb15ForwardIterator5ValidEv
librocksdb.so.5.4:_ZNK7rocksdb15ForwardIterator5valueEv
librocksdb.so.5.4:_ZNK7rocksdb15ForwardIterator6statusEv
librocksdb.so.5.4:_ZNK7rocksdb15GeoIteratorImpl5ValidEv
librocksdb.so.5.4:_ZNK7rocksdb15GeoIteratorImpl6statusEv
librocksdb.so.5.4:_ZNK7rocksdb15ManagedIterator3keyEv
librocksdb.so.5.4:_ZNK7rocksdb15ManagedIterator5ValidEv
librocksdb.so.5.4:_ZNK7rocksdb15ManagedIterator5valueEv
librocksdb.so.5.4:_ZNK7rocksdb15ManagedIterator6statusEv
librocksdb.so.5.4:_ZNK7rocksdb15PlainTableIndex9GetOffsetEjPj
librocksdb.so.5.4:_ZNK7rocksdb15TableProperties8ToStringERKNSt7__cxx1112basic_stringIcSt11char_traitsIcESaIcEEES8_
librocksdb.so.5.4:_ZNK7rocksdb15TransactionImpl9IsExpiredEv
librocksdb.so.5.4:_ZNK7rocksdb15WriteController9IsStoppedEv
librocksdb.so.5.4:_ZNK7rocksdb16BackupStatistics19GetNumberFailBackupEv
librocksdb.so.5.4:_ZNK7rocksdb16BackupStatistics22GetNumberSuccessBackupEv
librocksdb.so.5.4:_ZNK7rocksdb16BackupStatistics8ToStringB5cxx11Ev
librocksdb.so.5.4:_ZNK7rocksdb16ColumnFamilyData15NeedsCompactionEv
librocksdb.so.5.4:_ZNK7rocksdb16ColumnFamilyData18GetLatestCFOptionsEv
librocksdb.so.5.4:_ZNK7rocksdb16ColumnFamilyData18GetNumLiveVersionsEv
librocksdb.so.5.4:_ZNK7rocksdb16ColumnFamilyData20GetTotalSstFilesSizeEv
librocksdb.so.5.4:_ZNK7rocksdb16ColumnFamilyData26RangeOverlapWithCompactionERKNS_5SliceES3_i
librocksdb.so.5.4:_ZNK7rocksdb16ColumnFamilyData8soptionsEv
librocksdb.so.5.4:_ZNK7rocksdb16CompactionPicker26RangeOverlapWithCompactionERKNS_5SliceES3_i
librocksdb.so.5.4:_ZNK7rocksdb16CompactionPicker28SanitizeCompactionInputFilesEPSt13unordered_setImSt4hashImESt8equal_toImESaImEERKNS_20ColumnFamilyMetaDataEi
librocksdb.so.5.4:_ZNK7rocksdb16CompactionPicker31FilesRangeOverlapWithCompactionERKSt6vectorINS_20CompactionInputFilesESaIS2_EEi
librocksdb.so.5.4:_ZNK7rocksdb16CompactionPicker34GetCompactionInputsFromFileNumbersEPSt6vectorINS_20CompactionInputFilesESaIS2_EEPSt13unordered_setImSt4hashImESt8equal_toImESaImEEPKNS_18VersionStorageInfoERKNS_17CompactionOptionsE
librocksdb.so.5.4:_ZNK7rocksdb16CompactionPicker40SanitizeCompactionInputFilesForAllLevelsEPSt13unordered_setImSt4hashImESt8equal_toImESaImEERKNS_20ColumnFamilyMetaDataEi
librocksdb.so.5.4:_ZNK7rocksdb16CompactionPicker8GetRangeERKNS_20CompactionInputFilesEPNS_11InternalKeyES5_
librocksdb.so.5.4:_ZNK7rocksdb16CompactionPicker8GetRangeERKNS_20CompactionInputFilesES3_PNS_11InternalKeyES5_
librocksdb.so.5.4:_ZNK7rocksdb16CompactionPicker8GetRangeERKSt6vectorINS_20CompactionInputFilesESaIS2_EEPNS_11InternalKeyES8_
librocksdb.so.5.4:_ZNK7rocksdb16MutableCFOptions19MaxFileSizeForLevelEi
librocksdb.so.5.4:_ZNK7rocksdb16MutableCFOptions4DumpEPNS_6LoggerE
librocksdb.so.5.4:_ZNK7rocksdb16MutableDBOptions4DumpEPNS_6LoggerE
librocksdb.so.5.4:_ZNK7rocksdb16PlainTableReader10MatchBloomEj
librocksdb.so.5.4:_ZNK7rocksdb16PlainTableReader4NextEPNS_20PlainTableKeyDecoderEPjPNS_17ParsedInternalKeyEPNS_5SliceES7_Pb
librocksdb.so.5.4:_ZNK7rocksdb16PlainTableReader9GetOffsetEPNS_20PlainTableKeyDecoderERKNS_5SliceES5_jRbPj
librocksdb.so.5.4:_ZNK7rocksdb17CuckooTableReader22ApproximateMemoryUsageEv
librocksdb.so.5.4:_ZNK7rocksdb17MemTableAllocator9BlockSizeEv
librocksdb.so.5.4:_ZNK7rocksdb17ParsedInternalKey11DebugStringB5cxx11Eb
librocksdb.so.5.4:_ZNK7rocksdb17PlainTableBuilder10NumEntriesEv
librocksdb.so.5.4:_ZNK7rocksdb17PlainTableBuilder6statusEv
librocksdb.so.5.4:_ZNK7rocksdb17PlainTableBuilder8FileSizeEv
librocksdb.so.5.4:_ZNK7rocksdb17PlainTableFactory13table_optionsEv
librocksdb.so.5.4:_ZNK7rocksdb17PlainTableFactory14NewTableReaderERKNS_18TableReaderOptionsEOSt10unique_ptrINS_22RandomAccessFileReaderESt14default_deleteIS5_EEmPS4_INS_11TableReaderES6_ISA_EEb
librocksdb.so.5.4:_ZNK7rocksdb17PlainTableFactory15NewTableBuilderERKNS_19TableBuilderOptionsEjPNS_18WritableFileWriterE
librocksdb.so.5.4:_ZNK7rocksdb17PlainTableFactory24GetPrintableTableOptionsB5cxx11Ev
librocksdb.so.5.4:_ZNK7rocksdb17PosixRandomRWFile4ReadEmmPNS_5SliceEPc
librocksdb.so.5.4:_ZNK7rocksdb17PosixWritableFile11GetUniqueIdEPcm
librocksdb.so.5.4:_ZNK7rocksdb17PosixWritableFile16IsSyncThreadSafeEv
librocksdb.so.5.4:_ZNK7rocksdb18CuckooTableBuilder10NumEntriesEv
librocksdb.so.5.4:_ZNK7rocksdb18CuckooTableBuilder8FileSizeEv
librocksdb.so.5.4:_ZNK7rocksdb18CuckooTableFactory14NewTableReaderERKNS_18TableReaderOptionsEOSt10unique_ptrINS_22RandomAccessFileReaderESt14default_deleteIS5_EEmPS4_INS_11TableReaderES6_ISA_EEb
librocksdb.so.5.4:_ZNK7rocksdb18CuckooTableFactory15NewTableBuilderERKNS_19TableBuilderOptionsEjPNS_18WritableFileWriterE
librocksdb.so.5.4:_ZNK7rocksdb18CuckooTableFactory24GetPrintableTableOptionsB5cxx11Ev
librocksdb.so.5.4:_ZNK7rocksdb18ImmutableDBOptions4DumpEPNS_6LoggerE
librocksdb.so.5.4:_ZNK7rocksdb18PlainTableIterator3keyEv
librocksdb.so.5.4:_ZNK7rocksdb18PlainTableIterator5ValidEv
librocksdb.so.5.4:_ZNK7rocksdb18PlainTableIterator5valueEv
librocksdb.so.5.4:_ZNK7rocksdb18PlainTableIterator6statusEv
librocksdb.so.5.4:_ZNK7rocksdb18ReadableWriteBatch22GetEntryFromDataOffsetEmPNS_9WriteTypeEPNS_5SliceES4_S4_S4_
librocksdb.so.5.4:_ZNK7rocksdb18VersionStorageInfo12LevelSummaryEPNS0_19LevelSummaryStorageE
librocksdb.so.5.4:_ZNK7rocksdb18VersionStorageInfo13MaxInputLevelEv
librocksdb.so.5.4:_ZNK7rocksdb18VersionStorageInfo13NumLevelBytesEi
librocksdb.so.5.4:_ZNK7rocksdb18VersionStorageInfo16LevelFileSummaryEPNS0_18FileSummaryStorageEi
librocksdb.so.5.4:_ZNK7rocksdb18VersionStorageInfo16MaxBytesForLevelEi
librocksdb.so.5.4:_ZNK7rocksdb18VersionStorageInfo20EstimateLiveDataSizeEv
librocksdb.so.5.4:_ZNK7rocksdb18VersionStorageInfo20GetOverlappingInputsEiPKNS_11InternalKeyES3_PSt6vectorIPNS_12FileMetaDataESaIS6_EEiPib
librocksdb.so.5.4:_ZNK7rocksdb18VersionStorageInfo22GetEstimatedActiveKeysEv
librocksdb.so.5.4:_ZNK7rocksdb18VersionStorageInfo28GetCleanInputsWithinIntervalEiPKNS_11InternalKeyES3_PSt6vectorIPNS_12FileMetaDataESaIS6_EEiPi
librocksdb.so.5.4:_ZNK7rocksdb18VersionStorageInfo29ExtendFileRangeWithinIntervalEiRKNS_5SliceES3_jPiS4_
librocksdb.so.5.4:_ZNK7rocksdb18VersionStorageInfo34ExtendFileRangeOverlappingIntervalEiRKNS_5SliceES3_jPiS4_
librocksdb.so.5.4:_ZNK7rocksdb18VersionStorageInfo35GetEstimatedCompressionRatioAtLevelEi
librocksdb.so.5.4:_ZNK7rocksdb18VersionStorageInfo37GetOverlappingInputsRangeBinarySearchEiRKNS_5SliceES3_PSt6vectorIPNS_12FileMetaDataESaIS6_EEiPib
librocksdb.so.5.4:_ZNK7rocksdb19BackupableDBOptions4DumpEPNS_6LoggerE
librocksdb.so.5.4:_ZNK7rocksdb19ColumnFamilyOptions4DumpEPNS_6LoggerE
librocksdb.so.5.4:_ZNK7rocksdb19CuckooTableIterator3keyEv
librocksdb.so.5.4:_ZNK7rocksdb19CuckooTableIterator5ValidEv
librocksdb.so.5.4:_ZNK7rocksdb19CuckooTableIterator5valueEv
librocksdb.so.5.4:_ZNK7rocksdb19MemTableListVersion18GetTotalNumDeletesEv
librocksdb.so.5.4:_ZNK7rocksdb19MemTableListVersion18GetTotalNumEntriesEv
librocksdb.so.5.4:_ZNK7rocksdb19MemTableListVersion25GetEarliestSequenceNumberEb
librocksdb.so.5.4:_ZNK7rocksdb19TransactionBaseImpl10GetNumKeysEv
librocksdb.so.5.4:_ZNK7rocksdb19TransactionBaseImpl10GetNumPutsEv
librocksdb.so.5.4:_ZNK7rocksdb19TransactionBaseImpl12GetNumMergesEv
librocksdb.so.5.4:_ZNK7rocksdb19TransactionBaseImpl13GetNumDeletesEv
librocksdb.so.5.4:_ZNK7rocksdb19TransactionBaseImpl14GetElapsedTimeEv
librocksdb.so.5.4:_ZNK7rocksdb20AdaptiveTableFactory14NewTableReaderERKNS_18TableReaderOptionsEOSt10unique_ptrINS_22RandomAccessFileReaderESt14default_deleteIS5_EEmPS4_INS_11TableReaderES6_ISA_EEb
librocksdb.so.5.4:_ZNK7rocksdb20AdaptiveTableFactory15NewTableBuilderERKNS_19TableBuilderOptionsEjPNS_18WritableFileWriterE
librocksdb.so.5.4:_ZNK7rocksdb20AdaptiveTableFactory24GetPrintableTableOptionsB5cxx11Ev
librocksdb.so.5.4:_ZNK7rocksdb20FIFOCompactionPicker15NeedsCompactionEPKNS_18VersionStorageInfoE
librocksdb.so.5.4:_ZNK7rocksdb20StringAppendOperator4NameEv
librocksdb.so.5.4:_ZNK7rocksdb20StringAppendOperator5MergeERKNS_5SliceEPS2_S3_PNSt7__cxx1112basic_stringIcSt11char_traitsIcESaIcEEEPNS_6LoggerE
librocksdb.so.5.4:_ZNK7rocksdb21FullFilterBlockReader22ApproximateMemoryUsageEv
librocksdb.so.5.4:_ZNK7rocksdb21HistogramBucketMapper13IndexForValueEm
librocksdb.so.5.4:_ZNK7rocksdb21InternalKeyComparator18FindShortSuccessorEPNSt7__cxx1112basic_stringIcSt11char_traitsIcESaIcEEE
librocksdb.so.5.4:_ZNK7rocksdb21InternalKeyComparator21FindShortestSeparatorEPNSt7__cxx1112basic_stringIcSt11char_traitsIcESaIcEEERKNS_5SliceE
librocksdb.so.5.4:_ZNK7rocksdb21InternalKeyComparator4NameEv
librocksdb.so.5.4:_ZNK7rocksdb21InternalKeyComparator7CompareERKNS_17ParsedInternalKeyES3_
librocksdb.so.5.4:_ZNK7rocksdb21InternalKeyComparator7CompareERKNS_5SliceES3_
librocksdb.so.5.4:_ZNK7rocksdb21LevelCompactionPicker15NeedsCompactionEPKNS_18VersionStorageInfoE
librocksdb.so.5.4:_ZNK7rocksdb21PersistentCacheConfig8ToStringB5cxx11Ev
librocksdb.so.5.4:_ZNK7rocksdb21PosixMmapReadableFile4ReadEmmPNS_5SliceEPc
librocksdb.so.5.4:_ZNK7rocksdb21PosixRandomAccessFile11GetUniqueIdEPcm
librocksdb.so.5.4:_ZNK7rocksdb21PosixRandomAccessFile4ReadEmmPNS_5SliceEPc
librocksdb.so.5.4:_ZNK7rocksdb22BlockBasedTableBuilder10NumEntriesEv
librocksdb.so.5.4:_ZNK7rocksdb22BlockBasedTableBuilder11NeedCompactEv
librocksdb.so.5.4:_ZNK7rocksdb22BlockBasedTableBuilder18GetTablePropertiesEv
librocksdb.so.5.4:_ZNK7rocksdb22BlockBasedTableBuilder6statusEv
librocksdb.so.5.4:_ZNK7rocksdb22BlockBasedTableBuilder8FileSizeEv
librocksdb.so.5.4:_ZNK7rocksdb22BlockBasedTableFactory13table_optionsEv
librocksdb.so.5.4:_ZNK7rocksdb22BlockBasedTableFactory14NewTableReaderERKNS_18TableReaderOptionsEOSt10unique_ptrINS_22RandomAccessFileReaderESt14default_deleteIS5_EEmPS4_INS_11TableReaderES6_ISA_EEb
librocksdb.so.5.4:_ZNK7rocksdb22BlockBasedTableFactory15NewTableBuilderERKNS_19TableBuilderOptionsEjPNS_18WritableFileWriterE
librocksdb.so.5.4:_ZNK7rocksdb22BlockBasedTableFactory15SanitizeOptionsERKNS_9DBOptionsERKNS_19ColumnFamilyOptionsE
librocksdb.so.5.4:_ZNK7rocksdb22BlockBasedTableFactory24GetPrintableTableOptionsB5cxx11Ev
librocksdb.so.5.4:_ZNK7rocksdb22ColumnFamilyHandleImpl13GetComparatorEv
librocksdb.so.5.4:_ZNK7rocksdb22ColumnFamilyHandleImpl5GetIDEv
librocksdb.so.5.4:_ZNK7rocksdb22ColumnFamilyHandleImpl7GetNameB5cxx11Ev
librocksdb.so.5.4:_ZNK7rocksdb22HistogramWindowingImpl10PercentileEd
librocksdb.so.5.4:_ZNK7rocksdb22HistogramWindowingImpl17StandardDeviationEv
librocksdb.so.5.4:_ZNK7rocksdb22HistogramWindowingImpl4DataEPNS_13HistogramDataE
librocksdb.so.5.4:_ZNK7rocksdb22HistogramWindowingImpl5EmptyEv
librocksdb.so.5.4:_ZNK7rocksdb22HistogramWindowingImpl6MedianEv
librocksdb.so.5.4:_ZNK7rocksdb22HistogramWindowingImpl7AverageEv
librocksdb.so.5.4:_ZNK7rocksdb22HistogramWindowingImpl8ToStringB5cxx11Ev
librocksdb.so.5.4:_ZNK7rocksdb22RandomAccessFileReader4ReadEmmPNS_5SliceEPc
librocksdb.so.5.4:_ZNK7rocksdb23PartitionedIndexBuilder13EstimatedSizeEv
librocksdb.so.5.4:_ZNK7rocksdb24AssociativeMergeOperator11FullMergeV2ERKNS_13MergeOperator19MergeOperationInputEPNS1_20MergeOperationOutputE
librocksdb.so.5.4:_ZNK7rocksdb24AssociativeMergeOperator12PartialMergeERKNS_5SliceES3_S3_PNSt7__cxx1112basic_stringIcSt11char_traitsIcESaIcEEEPNS_6LoggerE
librocksdb.so.5.4:_ZNK7rocksdb24StringAppendTESTOperator11FullMergeV2ERKNS_13MergeOperator19MergeOperationInputEPNS1_20MergeOperationOutputE
librocksdb.so.5.4:_ZNK7rocksdb24StringAppendTESTOperator17PartialMergeMultiERKNS_5SliceERKSt5dequeIS1_SaIS1_EEPNSt7__cxx1112basic_stringIcSt11char_traitsIcESaIcEEEPNS_6LoggerE
librocksdb.so.5.4:_ZNK7rocksdb24StringAppendTESTOperator23_AssocPartialMergeMultiERKNS_5SliceERKSt5dequeIS1_SaIS1_EEPNSt7__cxx1112basic_stringIcSt11char_traitsIcESaIcEEEPNS_6LoggerE
librocksdb.so.5.4:_ZNK7rocksdb24StringAppendTESTOperator4NameEv
librocksdb.so.5.4:_ZNK7rocksdb25ColumnFamilyMemTablesImpl11GetMemTableEv
librocksdb.so.5.4:_ZNK7rocksdb25ColumnFamilyMemTablesImpl12GetLogNumberEv
librocksdb.so.5.4:_ZNK7rocksdb25UniversalCompactionPicker15NeedsCompactionEPKNS_18VersionStorageInfoE
librocksdb.so.5.4:_ZNK7rocksdb25UniversalCompactionPicker9SortedRun12DumpSizeInfoEPcmm
librocksdb.so.5.4:_ZNK7rocksdb25UniversalCompactionPicker9SortedRun4DumpEPcmb
librocksdb.so.5.4:_ZNK7rocksdb25WriteBatchEntryComparator10CompareKeyEjRKNS_5SliceES3_
librocksdb.so.5.4:_ZNK7rocksdb25WriteBatchEntryComparatorclEPKNS_20WriteBatchIndexEntryES3_
librocksdb.so.5.4:_ZNK7rocksdb27BlockBasedFilterBlockReader22ApproximateMemoryUsageEv
librocksdb.so.5.4:_ZNK7rocksdb27BlockBasedFilterBlockReader8ToStringB5cxx11Ev
librocksdb.so.5.4:_ZNK7rocksdb28PartitionedFilterBlockReader22ApproximateMemoryUsageEv
librocksdb.so.5.4:_ZNK7rocksdb29FlushBlockBySizePolicyFactory19NewFlushBlockPolicyERKNS_22BlockBasedTableOptionsERKNS_12BlockBuilderE
librocksdb.so.5.4:_ZNK7rocksdb30InternalKeyPropertiesCollector21GetReadablePropertiesB5cxx11Ev
librocksdb.so.5.4:_ZNK7rocksdb31UserKeyTablePropertiesCollector21GetReadablePropertiesB5cxx11Ev
librocksdb.so.5.4:_ZNK7rocksdb32RemoveEmptyValueCompactionFilter4NameEv
librocksdb.so.5.4:_ZNK7rocksdb32RemoveEmptyValueCompactionFilter6FilterEiRKNS_5SliceES3_PNSt7__cxx1112basic_stringIcSt11char_traitsIcESaIcEEEPb
librocksdb.so.5.4:_ZNK7rocksdb3Env11GetThreadIDEv
librocksdb.so.5.4:_ZNK7rocksdb3Env19OptimizeForLogWriteERKNS_10EnvOptionsERKNS_9DBOptionsE
librocksdb.so.5.4:_ZNK7rocksdb3Env24OptimizeForManifestWriteERKNS_10EnvOptionsE
librocksdb.so.5.4:_ZNK7rocksdb3Env30OptimizeForCompactionTableReadERKNS_10EnvOptionsERKNS_18ImmutableDBOptionsE
librocksdb.so.5.4:_ZNK7rocksdb3Env31OptimizeForCompactionTableWriteERKNS_10EnvOptionsERKNS_18ImmutableDBOptionsE
librocksdb.so.5.4:_ZNK7rocksdb5Block11NumRestartsEv
librocksdb.so.5.4:_ZNK7rocksdb5Block22ApproximateMemoryUsageEv
librocksdb.so.5.4:_ZNK7rocksdb5Slice8ToStringB5cxx11Eb
librocksdb.so.5.4:_ZNK7rocksdb5Slice9DecodeHexEPNSt7__cxx1112basic_stringIcSt11char_traitsIcESaIcEEE
librocksdb.so.5.4:_ZNK7rocksdb6DBImpl10GetOptionsEPNS_18ColumnFamilyHandleE
librocksdb.so.5.4:_ZNK7rocksdb6DBImpl11Directories21CreateAndNewDirectoryEPNS_3EnvERKNSt7__cxx1112basic_stringIcSt11char_traitsIcESaIcEEEPSt10unique_ptrINS_9DirectoryESt14default_deleteISD_EE
librocksdb.so.5.4:_ZNK7rocksdb6DBImpl12GetDBOptionsEv
librocksdb.so.5.4:_ZNK7rocksdb6DBImpl13GetDbIdentityERNSt7__cxx1112basic_stringIcSt11char_traitsIcESaIcEEE
librocksdb.so.5.4:_ZNK7rocksdb6DBImpl16MaybeIgnoreErrorEPNS_6StatusE
librocksdb.so.5.4:_ZNK7rocksdb6DBImpl18GetMaxTotalWalSizeEv
librocksdb.so.5.4:_ZNK7rocksdb6DBImpl19DefaultColumnFamilyEv
librocksdb.so.5.4:_ZNK7rocksdb6DBImpl20BGCompactionsAllowedEv
librocksdb.so.5.4:_ZNK7rocksdb6DBImpl21NewThreadStatusCfInfoEPNS_16ColumnFamilyDataE
librocksdb.so.5.4:_ZNK7rocksdb6DBImpl22IsFileDeletionsEnabledEv
librocksdb.so.5.4:_ZNK7rocksdb6DBImpl23EraseThreadStatusCfInfoEPNS_16ColumnFamilyDataE
librocksdb.so.5.4:_ZNK7rocksdb6DBImpl23EraseThreadStatusDbInfoEv
librocksdb.so.5.4:_ZNK7rocksdb6DBImpl23GetLatestSequenceNumberEv
librocksdb.so.5.4:_ZNK7rocksdb6DBImpl26GetWalPreallocateBlockSizeEm
librocksdb.so.5.4:_ZNK7rocksdb6DBImpl6GetEnvEv
librocksdb.so.5.4:_ZNK7rocksdb6DBImpl7GetNameB5cxx11Ev
librocksdb.so.5.4:_ZNK7rocksdb6Filter11GetIntervalERKNSt7__cxx1112basic_stringIcSt11char_traitsIcESaIcEEE
librocksdb.so.5.4:_ZNK7rocksdb6Filter15SatisfiesFilterERKNS_12JSONDocumentE
librocksdb.so.5.4:_ZNK7rocksdb6Footer8EncodeToEPNSt7__cxx1112basic_stringIcSt11char_traitsIcESaIcEEE
librocksdb.so.5.4:_ZNK7rocksdb6Footer8ToStringB5cxx11Ev
librocksdb.so.5.4:_ZNK7rocksdb6Status8ToStringB5cxx11Ev
librocksdb.so.5.4:_ZNK7rocksdb7LockMap9GetStripeERKNSt7__cxx1112basic_stringIcSt11char_traitsIcESaIcEEE
librocksdb.so.5.4:_ZNK7rocksdb7Options13DumpCFOptionsEPNS_6LoggerE
librocksdb.so.5.4:_ZNK7rocksdb7Options4DumpEPNS_6LoggerE
librocksdb.so.5.4:_ZNK7rocksdb7Version11DebugStringB5cxx11Eb
librocksdb.so.5.4:_ZNK7rocksdb7Version18GetTablePropertiesEPSt10shared_ptrIKNS_15TablePropertiesEEPKNS_12FileMetaDataEPKNSt7__cxx1112basic_stringIcSt11char_traitsIcESaIcEEE
librocksdb.so.5.4:_ZNK7rocksdb7Version28GetPropertiesOfTablesInRangeEPKNS_5RangeEmPSt13unordered_mapINSt7__cxx1112basic_stringIcSt11char_traitsIcESaIcEEESt10shared_ptrIKNS_15TablePropertiesEESt4hashISA_ESt8equal_toISA_ESaISt4pairIKSA_SE_EEE
librocksdb.so.5.4:_ZNK7rocksdb7blob_db10BlobDBImpl18FindBlobFileLockedEj
librocksdb.so.5.4:_ZNK7rocksdb7blob_db10BlobHandle8EncodeToEPNSt7__cxx1112basic_stringIcSt11char_traitsIcESaIcEEE
librocksdb.so.5.4:_ZNK7rocksdb7blob_db13BlobLogFooter8EncodeToEPNSt7__cxx1112basic_stringIcSt11char_traitsIcESaIcEEE
librocksdb.so.5.4:_ZNK7rocksdb7blob_db13BlobLogHeader8EncodeToEPNSt7__cxx1112basic_stringIcSt11char_traitsIcESaIcEEE
librocksdb.so.5.4:_ZNK7rocksdb7blob_db14BlobDBIterator5valueEv
librocksdb.so.5.4:_ZNK7rocksdb7blob_db17blobf_compare_ttlclERKSt10shared_ptrINS0_8BlobFileEES6_
librocksdb.so.5.4:_ZNK7rocksdb7blob_db8BlobFile10NeedsFsyncEbm
librocksdb.so.5.4:_ZNK7rocksdb7blob_db8BlobFile20OpenSequentialReaderEPNS_3EnvERKNS_9DBOptionsERKNS_10EnvOptionsE
librocksdb.so.5.4:_ZNK7rocksdb7blob_db8BlobFile8PathNameB5cxx11Ev
librocksdb.so.5.4:_ZNK7rocksdb7blob_db8BlobFile9DumpStateB5cxx11Ev
librocksdb.so.5.4:_ZNK7rocksdb7spatial10FeatureSet11DebugStringB5cxx11Ev
librocksdb.so.5.4:_ZNK7rocksdb7spatial10FeatureSet3GetERKNSt7__cxx1112basic_stringIcSt11char_traitsIcESaIcEEE
librocksdb.so.5.4:_ZNK7rocksdb7spatial10FeatureSet4FindERKNSt7__cxx1112basic_stringIcSt11char_traitsIcESaIcEEE
librocksdb.so.5.4:_ZNK7rocksdb7spatial10FeatureSet8ContainsERKNSt7__cxx1112basic_stringIcSt11char_traitsIcESaIcEEE
librocksdb.so.5.4:_ZNK7rocksdb7spatial10FeatureSet9SerializeEPNSt7__cxx1112basic_stringIcSt11char_traitsIcESaIcEEE
librocksdb.so.5.4:_ZNK7rocksdb7spatial7VarianteqERKS1_
librocksdb.so.5.4:_ZNK7rocksdb8LRUCache7GetHashEPNS_5Cache6HandleE
librocksdb.so.5.4:_ZNK7rocksdb8LRUCache8GetShardEi
librocksdb.so.5.4:_ZNK7rocksdb8LRUCache9GetChargeEPNS_5Cache6HandleE
librocksdb.so.5.4:_ZNK7rocksdb8MemTable13KeyComparatorclEPKcRKNS_5SliceE
librocksdb.so.5.4:_ZNK7rocksdb8MemTable13KeyComparatorclEPKcS3_
librocksdb.so.5.4:_ZNK7rocksdb8MemTable14ShouldFlushNowEv
librocksdb.so.5.4:_ZNK7rocksdb9DBOptions4DumpEPNS_6LoggerE
librocksdb.so.5.4:rocksdb_approximate_sizes
librocksdb.so.5.4:rocksdb_approximate_sizes_cf
librocksdb.so.5.4:rocksdb_backup_engine_close
librocksdb.so.5.4:rocksdb_backup_engine_create_new_backup
librocksdb.so.5.4:rocksdb_backup_engine_get_backup_info
librocksdb.so.5.4:rocksdb_backup_engine_info_backup_id
librocksdb.so.5.4:rocksdb_backup_engine_info_count
librocksdb.so.5.4:rocksdb_backup_engine_info_destroy
librocksdb.so.5.4:rocksdb_backup_engine_info_number_files
librocksdb.so.5.4:rocksdb_backup_engine_info_size
librocksdb.so.5.4:rocksdb_backup_engine_info_timestamp
librocksdb.so.5.4:rocksdb_backup_engine_open
librocksdb.so.5.4:rocksdb_backup_engine_purge_old_backups
librocksdb.so.5.4:rocksdb_backup_engine_restore_db_from_latest_backup
librocksdb.so.5.4:rocksdb_block_based_options_create
librocksdb.so.5.4:rocksdb_block_based_options_destroy
librocksdb.so.5.4:rocksdb_block_based_options_set_block_cache
librocksdb.so.5.4:rocksdb_block_based_options_set_block_cache_compressed
librocksdb.so.5.4:rocksdb_block_based_options_set_block_restart_interval
librocksdb.so.5.4:rocksdb_block_based_options_set_block_size
librocksdb.so.5.4:rocksdb_block_based_options_set_block_size_deviation
librocksdb.so.5.4:rocksdb_block_based_options_set_cache_index_and_filter_blocks
librocksdb.so.5.4:rocksdb_block_based_options_set_filter_policy
librocksdb.so.5.4:rocksdb_block_based_options_set_format_version
librocksdb.so.5.4:rocksdb_block_based_options_set_hash_index_allow_collision
librocksdb.so.5.4:rocksdb_block_based_options_set_index_type
librocksdb.so.5.4:rocksdb_block_based_options_set_no_block_cache
librocksdb.so.5.4:rocksdb_block_based_options_set_pin_l0_filter_and_index_blocks_in_cache
librocksdb.so.5.4:rocksdb_block_based_options_set_whole_key_filtering
librocksdb.so.5.4:rocksdb_cache_create_lru
librocksdb.so.5.4:rocksdb_cache_destroy
librocksdb.so.5.4:rocksdb_cache_get_pinned_usage
librocksdb.so.5.4:rocksdb_cache_get_usage
librocksdb.so.5.4:rocksdb_cache_set_capacity
librocksdb.so.5.4:rocksdb_close
librocksdb.so.5.4:rocksdb_column_family_handle_destroy
librocksdb.so.5.4:rocksdb_compact_range
librocksdb.so.5.4:rocksdb_compact_range_cf
librocksdb.so.5.4:rocksdb_compact_range_cf_opt
librocksdb.so.5.4:rocksdb_compact_range_opt
librocksdb.so.5.4:rocksdb_compactionfilter_create
librocksdb.so.5.4:rocksdb_compactionfilter_destroy
librocksdb.so.5.4:rocksdb_compactionfilter_set_ignore_snapshots
librocksdb.so.5.4:rocksdb_compactionfiltercontext_is_full_compaction
librocksdb.so.5.4:rocksdb_compactionfiltercontext_is_manual_compaction
librocksdb.so.5.4:rocksdb_compactionfilterfactory_create
librocksdb.so.5.4:rocksdb_compactionfilterfactory_destroy
librocksdb.so.5.4:rocksdb_compactoptions_create
librocksdb.so.5.4:rocksdb_compactoptions_destroy
librocksdb.so.5.4:rocksdb_compactoptions_set_change_level
librocksdb.so.5.4:rocksdb_compactoptions_set_exclusive_manual_compaction
librocksdb.so.5.4:rocksdb_compactoptions_set_target_level
librocksdb.so.5.4:rocksdb_comparator_create
librocksdb.so.5.4:rocksdb_comparator_destroy
librocksdb.so.5.4:rocksdb_create_column_family
librocksdb.so.5.4:rocksdb_create_default_env
librocksdb.so.5.4:rocksdb_create_iterator
librocksdb.so.5.4:rocksdb_create_iterator_cf
librocksdb.so.5.4:rocksdb_create_iterators
librocksdb.so.5.4:rocksdb_create_mem_env
librocksdb.so.5.4:rocksdb_create_snapshot
librocksdb.so.5.4:rocksdb_cuckoo_options_create
librocksdb.so.5.4:rocksdb_cuckoo_options_destroy
librocksdb.so.5.4:rocksdb_cuckoo_options_set_cuckoo_block_size
librocksdb.so.5.4:rocksdb_cuckoo_options_set_hash_ratio
librocksdb.so.5.4:rocksdb_cuckoo_options_set_identity_as_first_hash
librocksdb.so.5.4:rocksdb_cuckoo_options_set_max_search_depth
librocksdb.so.5.4:rocksdb_cuckoo_options_set_use_module_hash
librocksdb.so.5.4:rocksdb_delete
librocksdb.so.5.4:rocksdb_delete_cf
librocksdb.so.5.4:rocksdb_delete_file
librocksdb.so.5.4:rocksdb_delete_file_in_range
librocksdb.so.5.4:rocksdb_delete_file_in_range_cf
librocksdb.so.5.4:rocksdb_destroy_db
librocksdb.so.5.4:rocksdb_disable_file_deletions
librocksdb.so.5.4:rocksdb_drop_column_family
librocksdb.so.5.4:rocksdb_enable_file_deletions
librocksdb.so.5.4:rocksdb_env_destroy
librocksdb.so.5.4:rocksdb_env_join_all_threads
librocksdb.so.5.4:rocksdb_env_set_background_threads
librocksdb.so.5.4:rocksdb_env_set_high_priority_background_threads
librocksdb.so.5.4:rocksdb_envoptions_create
librocksdb.so.5.4:rocksdb_envoptions_destroy
librocksdb.so.5.4:rocksdb_fifo_compaction_options_create
librocksdb.so.5.4:rocksdb_fifo_compaction_options_destroy
librocksdb.so.5.4:rocksdb_fifo_compaction_options_set_max_table_files_size
librocksdb.so.5.4:rocksdb_filterpolicy_create
librocksdb.so.5.4:rocksdb_filterpolicy_create_bloom
librocksdb.so.5.4:rocksdb_filterpolicy_create_bloom_format
librocksdb.so.5.4:rocksdb_filterpolicy_create_bloom_full
librocksdb.so.5.4:rocksdb_filterpolicy_destroy
librocksdb.so.5.4:rocksdb_flush
librocksdb.so.5.4:rocksdb_flushoptions_create
librocksdb.so.5.4:rocksdb_flushoptions_destroy
librocksdb.so.5.4:rocksdb_flushoptions_set_wait
librocksdb.so.5.4:rocksdb_free
librocksdb.so.5.4:rocksdb_get
librocksdb.so.5.4:rocksdb_get_cf
librocksdb.so.5.4:rocksdb_get_options_from_string
librocksdb.so.5.4:rocksdb_ingest_external_file
librocksdb.so.5.4:rocksdb_ingest_external_file_cf
librocksdb.so.5.4:rocksdb_ingestexternalfileoptions_create
librocksdb.so.5.4:rocksdb_ingestexternalfileoptions_destroy
librocksdb.so.5.4:rocksdb_ingestexternalfileoptions_set_allow_blocking_flush
librocksdb.so.5.4:rocksdb_ingestexternalfileoptions_set_allow_global_seqno
librocksdb.so.5.4:rocksdb_ingestexternalfileoptions_set_move_files
librocksdb.so.5.4:rocksdb_ingestexternalfileoptions_set_snapshot_consistency
librocksdb.so.5.4:rocksdb_iter_destroy
librocksdb.so.5.4:rocksdb_iter_get_error
librocksdb.so.5.4:rocksdb_iter_key
librocksdb.so.5.4:rocksdb_iter_next
librocksdb.so.5.4:rocksdb_iter_prev
librocksdb.so.5.4:rocksdb_iter_seek
librocksdb.so.5.4:rocksdb_iter_seek_for_prev
librocksdb.so.5.4:rocksdb_iter_seek_to_first
librocksdb.so.5.4:rocksdb_iter_seek_to_last
librocksdb.so.5.4:rocksdb_iter_valid
librocksdb.so.5.4:rocksdb_iter_value
librocksdb.so.5.4:rocksdb_list_column_families
librocksdb.so.5.4:rocksdb_list_column_families_destroy
librocksdb.so.5.4:rocksdb_livefiles
librocksdb.so.5.4:rocksdb_livefiles_count
librocksdb.so.5.4:rocksdb_livefiles_destroy
librocksdb.so.5.4:rocksdb_livefiles_largestkey
librocksdb.so.5.4:rocksdb_livefiles_level
librocksdb.so.5.4:rocksdb_livefiles_name
librocksdb.so.5.4:rocksdb_livefiles_size
librocksdb.so.5.4:rocksdb_livefiles_smallestkey
librocksdb.so.5.4:rocksdb_merge
librocksdb.so.5.4:rocksdb_merge_cf
librocksdb.so.5.4:rocksdb_mergeoperator_create
librocksdb.so.5.4:rocksdb_mergeoperator_destroy
librocksdb.so.5.4:rocksdb_multi_get
librocksdb.so.5.4:rocksdb_multi_get_cf
librocksdb.so.5.4:rocksdb_open
librocksdb.so.5.4:rocksdb_open_column_families
librocksdb.so.5.4:rocksdb_open_for_read_only
librocksdb.so.5.4:rocksdb_open_for_read_only_column_families
librocksdb.so.5.4:rocksdb_options_compaction_readahead_size
librocksdb.so.5.4:rocksdb_options_create
librocksdb.so.5.4:rocksdb_options_destroy
librocksdb.so.5.4:rocksdb_options_enable_statistics
librocksdb.so.5.4:rocksdb_options_increase_parallelism
librocksdb.so.5.4:rocksdb_options_optimize_for_point_lookup
librocksdb.so.5.4:rocksdb_options_optimize_level_style_compaction
librocksdb.so.5.4:rocksdb_options_optimize_universal_style_compaction
librocksdb.so.5.4:rocksdb_options_prepare_for_bulk_load
librocksdb.so.5.4:rocksdb_options_set_WAL_size_limit_MB
librocksdb.so.5.4:rocksdb_options_set_WAL_ttl_seconds
librocksdb.so.5.4:rocksdb_options_set_access_hint_on_compaction_start
librocksdb.so.5.4:rocksdb_options_set_advise_random_on_open
librocksdb.so.5.4:rocksdb_options_set_allow_concurrent_memtable_write
librocksdb.so.5.4:rocksdb_options_set_allow_mmap_reads
librocksdb.so.5.4:rocksdb_options_set_allow_mmap_writes
librocksdb.so.5.4:rocksdb_options_set_arena_block_size
librocksdb.so.5.4:rocksdb_options_set_base_background_compactions
librocksdb.so.5.4:rocksdb_options_set_block_based_table_factory
librocksdb.so.5.4:rocksdb_options_set_bloom_locality
librocksdb.so.5.4:rocksdb_options_set_bytes_per_sync
librocksdb.so.5.4:rocksdb_options_set_compaction_filter
librocksdb.so.5.4:rocksdb_options_set_compaction_filter_factory
librocksdb.so.5.4:rocksdb_options_set_compaction_style
librocksdb.so.5.4:rocksdb_options_set_comparator
librocksdb.so.5.4:rocksdb_options_set_compression
librocksdb.so.5.4:rocksdb_options_set_compression_options
librocksdb.so.5.4:rocksdb_options_set_compression_per_level
librocksdb.so.5.4:rocksdb_options_set_create_if_missing
librocksdb.so.5.4:rocksdb_options_set_create_missing_column_families
librocksdb.so.5.4:rocksdb_options_set_cuckoo_table_factory
librocksdb.so.5.4:rocksdb_options_set_db_log_dir
librocksdb.so.5.4:rocksdb_options_set_db_write_buffer_size
librocksdb.so.5.4:rocksdb_options_set_delete_obsolete_files_period_micros
librocksdb.so.5.4:rocksdb_options_set_disable_auto_compactions
librocksdb.so.5.4:rocksdb_options_set_enable_write_thread_adaptive_yield
librocksdb.so.5.4:rocksdb_options_set_env
librocksdb.so.5.4:rocksdb_options_set_error_if_exists
librocksdb.so.5.4:rocksdb_options_set_fifo_compaction_options
librocksdb.so.5.4:rocksdb_options_set_hard_pending_compaction_bytes_limit
librocksdb.so.5.4:rocksdb_options_set_hard_rate_limit
librocksdb.so.5.4:rocksdb_options_set_hash_link_list_rep
librocksdb.so.5.4:rocksdb_options_set_hash_skip_list_rep
librocksdb.so.5.4:rocksdb_options_set_info_log
librocksdb.so.5.4:rocksdb_options_set_info_log_level
librocksdb.so.5.4:rocksdb_options_set_inplace_update_num_locks
librocksdb.so.5.4:rocksdb_options_set_inplace_update_support
librocksdb.so.5.4:rocksdb_options_set_is_fd_close_on_exec
librocksdb.so.5.4:rocksdb_options_set_keep_log_file_num
librocksdb.so.5.4:rocksdb_options_set_level0_file_num_compaction_trigger
librocksdb.so.5.4:rocksdb_options_set_level0_slowdown_writes_trigger
librocksdb.so.5.4:rocksdb_options_set_level0_stop_writes_trigger
librocksdb.so.5.4:rocksdb_options_set_level_compaction_dynamic_level_bytes
librocksdb.so.5.4:rocksdb_options_set_log_file_time_to_roll
librocksdb.so.5.4:rocksdb_options_set_manifest_preallocation_size
librocksdb.so.5.4:rocksdb_options_set_max_background_compactions
librocksdb.so.5.4:rocksdb_options_set_max_background_flushes
librocksdb.so.5.4:rocksdb_options_set_max_bytes_for_level_base
librocksdb.so.5.4:rocksdb_options_set_max_bytes_for_level_multiplier
librocksdb.so.5.4:rocksdb_options_set_max_bytes_for_level_multiplier_additional
librocksdb.so.5.4:rocksdb_options_set_max_compaction_bytes
librocksdb.so.5.4:rocksdb_options_set_max_log_file_size
librocksdb.so.5.4:rocksdb_options_set_max_manifest_file_size
librocksdb.so.5.4:rocksdb_options_set_max_mem_compaction_level
librocksdb.so.5.4:rocksdb_options_set_max_open_files
librocksdb.so.5.4:rocksdb_options_set_max_sequential_skip_in_iterations
librocksdb.so.5.4:rocksdb_options_set_max_successive_merges
librocksdb.so.5.4:rocksdb_options_set_max_total_wal_size
librocksdb.so.5.4:rocksdb_options_set_max_write_buffer_number
librocksdb.so.5.4:rocksdb_options_set_max_write_buffer_number_to_maintain
librocksdb.so.5.4:rocksdb_options_set_memtable_huge_page_size
librocksdb.so.5.4:rocksdb_options_set_memtable_prefix_bloom_size_ratio
librocksdb.so.5.4:rocksdb_options_set_memtable_vector_rep
librocksdb.so.5.4:rocksdb_options_set_merge_operator
librocksdb.so.5.4:rocksdb_options_set_min_level_to_compress
librocksdb.so.5.4:rocksdb_options_set_min_write_buffer_number_to_merge
librocksdb.so.5.4:rocksdb_options_set_num_levels
librocksdb.so.5.4:rocksdb_options_set_optimize_filters_for_hits
librocksdb.so.5.4:rocksdb_options_set_paranoid_checks
librocksdb.so.5.4:rocksdb_options_set_plain_table_factory
librocksdb.so.5.4:rocksdb_options_set_prefix_extractor
librocksdb.so.5.4:rocksdb_options_set_purge_redundant_kvs_while_flush
librocksdb.so.5.4:rocksdb_options_set_rate_limit_delay_max_milliseconds
librocksdb.so.5.4:rocksdb_options_set_ratelimiter
librocksdb.so.5.4:rocksdb_options_set_recycle_log_file_num
librocksdb.so.5.4:rocksdb_options_set_report_bg_io_stats
librocksdb.so.5.4:rocksdb_options_set_skip_log_error_on_recovery
librocksdb.so.5.4:rocksdb_options_set_soft_pending_compaction_bytes_limit
librocksdb.so.5.4:rocksdb_options_set_soft_rate_limit
librocksdb.so.5.4:rocksdb_options_set_stats_dump_period_sec
librocksdb.so.5.4:rocksdb_options_set_table_cache_numshardbits
librocksdb.so.5.4:rocksdb_options_set_table_cache_remove_scan_count_limit
librocksdb.so.5.4:rocksdb_options_set_target_file_size_base
librocksdb.so.5.4:rocksdb_options_set_target_file_size_multiplier
librocksdb.so.5.4:rocksdb_options_set_uint64add_merge_operator
librocksdb.so.5.4:rocksdb_options_set_universal_compaction_options
librocksdb.so.5.4:rocksdb_options_set_use_adaptive_mutex
librocksdb.so.5.4:rocksdb_options_set_use_direct_io_for_flush_and_compaction
librocksdb.so.5.4:rocksdb_options_set_use_direct_reads
librocksdb.so.5.4:rocksdb_options_set_use_fsync
librocksdb.so.5.4:rocksdb_options_set_wal_dir
librocksdb.so.5.4:rocksdb_options_set_wal_recovery_mode
librocksdb.so.5.4:rocksdb_options_set_write_buffer_size
librocksdb.so.5.4:rocksdb_options_statistics_get_string
librocksdb.so.5.4:rocksdb_property_int
librocksdb.so.5.4:rocksdb_property_value
librocksdb.so.5.4:rocksdb_property_value_cf
librocksdb.so.5.4:rocksdb_put
librocksdb.so.5.4:rocksdb_put_cf
librocksdb.so.5.4:rocksdb_ratelimiter_create
librocksdb.so.5.4:rocksdb_ratelimiter_destroy
librocksdb.so.5.4:rocksdb_readoptions_create
librocksdb.so.5.4:rocksdb_readoptions_destroy
librocksdb.so.5.4:rocksdb_readoptions_set_fill_cache
librocksdb.so.5.4:rocksdb_readoptions_set_iterate_upper_bound
librocksdb.so.5.4:rocksdb_readoptions_set_pin_data
librocksdb.so.5.4:rocksdb_readoptions_set_read_tier
librocksdb.so.5.4:rocksdb_readoptions_set_readahead_size
librocksdb.so.5.4:rocksdb_readoptions_set_snapshot
librocksdb.so.5.4:rocksdb_readoptions_set_tailing
librocksdb.so.5.4:rocksdb_readoptions_set_total_order_seek
librocksdb.so.5.4:rocksdb_readoptions_set_verify_checksums
librocksdb.so.5.4:rocksdb_release_snapshot
librocksdb.so.5.4:rocksdb_repair_db
librocksdb.so.5.4:rocksdb_restore_options_create
librocksdb.so.5.4:rocksdb_restore_options_destroy
librocksdb.so.5.4:rocksdb_restore_options_set_keep_log_files
librocksdb.so.5.4:rocksdb_set_options
librocksdb.so.5.4:rocksdb_slicetransform_create
librocksdb.so.5.4:rocksdb_slicetransform_create_fixed_prefix
librocksdb.so.5.4:rocksdb_slicetransform_create_noop
librocksdb.so.5.4:rocksdb_slicetransform_destroy
librocksdb.so.5.4:rocksdb_sstfilewriter_add
librocksdb.so.5.4:rocksdb_sstfilewriter_create
librocksdb.so.5.4:rocksdb_sstfilewriter_create_with_comparator
librocksdb.so.5.4:rocksdb_sstfilewriter_destroy
librocksdb.so.5.4:rocksdb_sstfilewriter_finish
librocksdb.so.5.4:rocksdb_sstfilewriter_open
librocksdb.so.5.4:rocksdb_universal_compaction_options_create
librocksdb.so.5.4:rocksdb_universal_compaction_options_destroy
librocksdb.so.5.4:rocksdb_universal_compaction_options_set_compression_size_percent
librocksdb.so.5.4:rocksdb_universal_compaction_options_set_max_merge_width
librocksdb.so.5.4:rocksdb_universal_compaction_options_set_max_size_amplification_percent
librocksdb.so.5.4:rocksdb_universal_compaction_options_set_min_merge_width
librocksdb.so.5.4:rocksdb_universal_compaction_options_set_size_ratio
librocksdb.so.5.4:rocksdb_universal_compaction_options_set_stop_style
librocksdb.so.5.4:rocksdb_write
librocksdb.so.5.4:rocksdb_write_writebatch_wi
librocksdb.so.5.4:rocksdb_writebatch_clear
librocksdb.so.5.4:rocksdb_writebatch_count
librocksdb.so.5.4:rocksdb_writebatch_create
librocksdb.so.5.4:rocksdb_writebatch_create_from
librocksdb.so.5.4:rocksdb_writebatch_data
librocksdb.so.5.4:rocksdb_writebatch_delete
librocksdb.so.5.4:rocksdb_writebatch_delete_cf
librocksdb.so.5.4:rocksdb_writebatch_delete_range
librocksdb.so.5.4:rocksdb_writebatch_delete_range_cf
librocksdb.so.5.4:rocksdb_writebatch_delete_rangev
librocksdb.so.5.4:rocksdb_writebatch_delete_rangev_cf
librocksdb.so.5.4:rocksdb_writebatch_deletev
librocksdb.so.5.4:rocksdb_writebatch_deletev_cf
librocksdb.so.5.4:rocksdb_writebatch_destroy
librocksdb.so.5.4:rocksdb_writebatch_iterate
librocksdb.so.5.4:rocksdb_writebatch_merge
librocksdb.so.5.4:rocksdb_writebatch_merge_cf
librocksdb.so.5.4:rocksdb_writebatch_mergev
librocksdb.so.5.4:rocksdb_writebatch_mergev_cf
librocksdb.so.5.4:rocksdb_writebatch_put
librocksdb.so.5.4:rocksdb_writebatch_put_cf
librocksdb.so.5.4:rocksdb_writebatch_put_log_data
librocksdb.so.5.4:rocksdb_writebatch_putv
librocksdb.so.5.4:rocksdb_writebatch_putv_cf
librocksdb.so.5.4:rocksdb_writebatch_rollback_to_save_point
librocksdb.so.5.4:rocksdb_writebatch_set_save_point
librocksdb.so.5.4:rocksdb_writebatch_wi_clear
librocksdb.so.5.4:rocksdb_writebatch_wi_count
librocksdb.so.5.4:rocksdb_writebatch_wi_create
librocksdb.so.5.4:rocksdb_writebatch_wi_create_iterator_with_base
librocksdb.so.5.4:rocksdb_writebatch_wi_create_iterator_with_base_cf
librocksdb.so.5.4:rocksdb_writebatch_wi_data
librocksdb.so.5.4:rocksdb_writebatch_wi_delete
librocksdb.so.5.4:rocksdb_writebatch_wi_delete_cf
librocksdb.so.5.4:rocksdb_writebatch_wi_delete_range
librocksdb.so.5.4:rocksdb_writebatch_wi_delete_range_cf
librocksdb.so.5.4:rocksdb_writebatch_wi_delete_rangev
librocksdb.so.5.4:rocksdb_writebatch_wi_delete_rangev_cf
librocksdb.so.5.4:rocksdb_writebatch_wi_deletev
librocksdb.so.5.4:rocksdb_writebatch_wi_deletev_cf
librocksdb.so.5.4:rocksdb_writebatch_wi_destroy
librocksdb.so.5.4:rocksdb_writebatch_wi_get_from_batch
librocksdb.so.5.4:rocksdb_writebatch_wi_get_from_batch_and_db
librocksdb.so.5.4:rocksdb_writebatch_wi_get_from_batch_and_db_cf
librocksdb.so.5.4:rocksdb_writebatch_wi_get_from_batch_cf
librocksdb.so.5.4:rocksdb_writebatch_wi_iterate
librocksdb.so.5.4:rocksdb_writebatch_wi_merge
librocksdb.so.5.4:rocksdb_writebatch_wi_merge_cf
librocksdb.so.5.4:rocksdb_writebatch_wi_mergev
librocksdb.so.5.4:rocksdb_writebatch_wi_mergev_cf
librocksdb.so.5.4:rocksdb_writebatch_wi_put
librocksdb.so.5.4:rocksdb_writebatch_wi_put_cf
librocksdb.so.5.4:rocksdb_writebatch_wi_put_log_data
librocksdb.so.5.4:rocksdb_writebatch_wi_putv
librocksdb.so.5.4:rocksdb_writebatch_wi_putv_cf
librocksdb.so.5.4:rocksdb_writebatch_wi_rollback_to_save_point
librocksdb.so.5.4:rocksdb_writebatch_wi_set_save_point
librocksdb.so.5.4:rocksdb_writeoptions_create
librocksdb.so.5.4:rocksdb_writeoptions_destroy
librocksdb.so.5.4:rocksdb_writeoptions_disable_WAL
librocksdb.so.5.4:rocksdb_writeoptions_set_sync
